((dp0
S'Expectorants/Cold Comb'
p1
c__builtin__
set
p2
((lp3
S'guaifenesin_hydrocodone_bitartrate'
p4
aS'cpm_dm_hydrobrom_phenyleph_hcl'
p5
aS'guaifenesin_pseudoephedrine_hydrochloride'
p6
aS'dm_hydrobrom_gg_phenyleph_hcl'
p7
aS'dm_hydrobrom_gg_pse_hcl'
p8
aS'guaifenesin'
p9
aS'guaifenesin_phenylephrine_hydrochloride'
p10
atp11
Rp12
sS'Cardiac, Calcium Channel'
p13
g2
((lp14
S'nifedipine'
p15
aS'amlodipine_besylate_valsartan'
p16
aS'amlodipine_besylate'
p17
aS'amlodipine_besylate_olmesartan_medoxomil'
p18
aS'verapamil_hydrochloride'
p19
aS'amlodipine_besylate_benazepril_hydrochloride'
p20
aS'felodipine'
p21
aS'diltiazem_hydrochloride'
p22
atp23
Rp24
sS'Cath&Lax, Laxatives, Stimulant'
p25
g2
((lp26
S'peg_electrolyte_lavage_solution'
p27
atp28
Rp29
sS'Diuretics, Osmotic'
p30
g2
((lp31
S'urea'
p32
atp33
Rp34
sS'Emoll/Moist/Demul/Protect S/MM'
p35
g2
((lp36
S'ammonium_lactate'
p37
ag32
aS'cream__multi_ingredient'
p38
atp39
Rp40
sS'Antiinf S/MM,Antibiotic & Comb'
p41
g2
((lp42
S'neomycin_sulfate'
p43
aS'mupirocin_calcium'
p44
aS'benzoyl_peroxide_clindamycin_phosphate'
p45
aS'sulfacetamide_sodium_sulfur'
p46
aS'clindamycin_phosphate'
p47
aS'tetracycline_hydrochloride'
p48
aS'gramicidin_neomycin_sulfate_polymyxin_b_sulf'
p49
aS'bacitracin'
p50
aS'erythromycin_ethylsuccinate'
p51
aS'bacitracin_zinc_polymyxin_b_sulfate'
p52
aS'clindamycin_hydrochloride'
p53
aS'benzoyl_peroxide_erythromycin'
p54
aS'gentamicin_sulfate'
p55
aS'erythromycin'
p56
aS'mupirocin'
p57
aS'clindamycin_phosphate_tretinoin'
p58
aS'sulfacetamide_sodium'
p59
atp60
Rp61
sS'Antiprur/Local Anest S/MM'
p62
g2
((lp63
S'doxepin_hydrochloride'
p64
aS'diphenhydramine_hydrochloride'
p65
aS'lidocaine_prilocaine'
p66
ag38
aS'lidocaine'
p67
aS'lidocaine_hydrochloride'
p68
atp69
Rp70
sS'Antihyperlipidemic Drugs'
p71
g2
((lp72
S'atorvastatin_calcium'
p73
aS'fenofibrate__micronized'
p74
aS'fluvastatin_sodium'
p75
aS'omega-3-acid_ethyl_esters'
p76
aS'cholestyramine'
p77
aS'ezetimibe_simvastatin'
p78
aS'fenofibrate'
p79
aS'ezetimibe'
p80
aS'colesevelam_hydrochloride'
p81
aS'lovastatin'
p82
aS'fenofibric_acid'
p83
aS'rosuvastatin_calcium'
p84
aS'pravastatin_sodium'
p85
aS'simvastatin'
p86
aS'gemfibrozil'
p87
atp88
Rp89
sS'Repl Preps, Potassium Supp'
p90
g2
((lp91
S'potassium_chloride'
p92
atp93
Rp94
sS'Antivirals'
p95
g2
((lp96
S'valacyclovir_hydrochloride'
p97
aS'amantadine_hydrochloride'
p98
aS'oseltamivir_phosphate'
p99
aS'famciclovir'
p100
aS'acyclovir'
p101
atp102
Rp103
sS'Cardiac, Alpha-Beta Blockers'
p104
g2
((lp105
S'labetalol_hydrochloride'
p106
atp107
Rp108
sS'Fluoride Preparations'
p109
g2
((lp110
S'multivitamin_and_fluoride'
p111
aS'sodium_fluoride'
p112
atp113
Rp114
sS'Stimulant, Amphetamine Type'
p115
g2
((lp116
S'methylphenidate_hydrochloride'
p117
aS'lisdexamfetamine_dimesylate'
p118
aS'amphetamine_salt_combination'
p119
aS'phentermine_hydrochloride'
p120
aS'modafinil'
p121
aS'dexmethylphenidate_hydrochloride'
p122
atp123
Rp124
sS'Cardiac, ACE Inhibitors'
p125
g2
((lp126
S'fosinopril_sodium'
p127
aS'hydrochlorothiazide_lisinopril'
p128
aS'benazepril_hydrochloride_hydrochlorothiazide'
p129
aS'benazepril_hydrochloride'
p130
aS'ramipril'
p131
aS'enalapril_maleate'
p132
aS'captopril'
p133
aS'quinapril_hydrochloride'
p134
aS'lisinopril'
p135
atp136
Rp137
sS'Cardiac Drugs'
p138
g2
((lp139
S'hydrochlorothiazide_olmesartan_medoxomil'
p140
aS'telmisartan'
p141
aS'hydrochlorothiazide_irbesartan'
p142
aS'hydrochlorothiazide_valsartan'
p143
aS'olmesartan_medoxomil'
p144
aS'valsartan'
p145
aS'hydrochlorothiazide_losartan_potassium'
p146
aS'amlodipine_besylate_atorvastatin_calcium'
p147
aS'candesartan_cilexetil'
p148
aS'losartan_potassium'
p149
aS'irbesartan'
p150
aS'hydrochlorothiazide_telmisartan'
p151
atp152
Rp153
sS'Antiinflam S/MM Agnts&Comb'
p154
g2
((lp155
S'betamethasone_dipropionate__augmented'
p156
aS'fluocinonide'
p157
aS'betamethasone_dipropionate_calcipotriene'
p158
aS'chloroxylenol_hc_pramoxine_hcl'
p159
aS'halobetasol_propionate'
p160
aS'mometasone_furoate'
p161
aS'hydrocortisone'
p162
aS'fluticasone_propionate'
p163
aS'betamethasone_dipropionate'
p164
aS'hydrocortisone_butyrate'
p165
aS'desonide'
p166
aS'clobetasol_propionate'
p167
aS'betamethasone_valerate'
p168
aS'desoximetasone'
p169
aS'clocortolone_pivalate'
p170
aS'fluocinolone_acetonide'
p171
aS'hydrocortisone_valerate'
p172
aS'alclometasone_dipropionate'
p173
aS'hydrocortisone_acetate_pramoxine_hydrochlori'
p174
aS'flurandrenolide'
p175
aS'triamcinolone_acetonide'
p176
aS'dexamethasone'
p177
aS'hydrocortisone_acetate'
p178
aS'diflorasone_diacetate'
p179
aS'nystatin_triamcinolone_acetonide'
p180
atp181
Rp182
sS'Antigout Agents'
p183
g2
((lp184
S'allopurinol'
p185
aS'colchicine'
p186
atp187
Rp188
sS'Leukotriene Modifiers'
p189
g2
((lp190
S'montelukast_sodium'
p191
atp192
Rp193
sS'Cardiac, Cardiac Glycosides'
p194
g2
((lp195
S'digoxin'
p196
atp197
Rp198
sS'Antiemetics'
p199
g2
((lp200
S'ondansetron_hydrochloride'
p201
aS'metoclopramide_hydrochloride'
p202
aS'benzocaine_trimethobenzamide_hydrochloride'
p203
aS'prochlorperazine_maleate'
p204
aS'trimethobenzamide_hydrochloride'
p205
aS'meclizine_hydrochloride'
p206
aS'prochlorperazine'
p207
aS'ondansetron'
p208
aS'aprepitant'
p209
atp210
Rp211
sS'Analgesics/Antipyretics'
p212
g2
((lp213
S'clonidine_hydrochloride'
p214
aS'tramadol_hydrochloride'
p215
aS'acetaminophen_tramadol_hydrochloride'
p216
aS'acetaminophen_butalbital'
p217
aS'aspirin_butalbital_caffeine'
p218
aS'acetaminophen_butalbital_caffeine'
p219
atp220
Rp221
sS'Adrenals & Comb'
p222
g2
((lp223
g162
ag165
aS'prednisolone'
p224
aS'prednisone'
p225
ag161
aS'budesonide'
p226
aS'flunisolide'
p227
aS'methylprednisolone'
p228
ag178
aS'prednisolone_acetate'
p229
aS'prednisolone_sodium_phosphate'
p230
aS'beclomethasone_dipropionate'
p231
aS'fluticasone_propionate_salmeterol_xinafoate'
p232
aS'fludrocortisone_acetate'
p233
aS'budesonide_formoterol_fumarate'
p234
ag163
aS'formoterol_fumarate_mometasone_furoate'
p235
ag176
ag177
atp236
Rp237
sS'Antibiot, Antifungals'
p238
g2
((lp239
S'griseofulvin__microcrystalline'
p240
aS'nystatin'
p241
aS'ketoconazole'
p242
aS'itraconazole'
p243
aS'fluconazole'
p244
aS'terbinafine_hydrochloride'
p245
atp246
Rp247
sS'Antituberculosis Agents'
p248
g2
((lp249
S'rifampin'
p250
atp251
Rp252
sS'Vitamin A & Derivatives'
p253
g2
((lp254
S'isotretinoin'
p255
atp256
Rp257
sS'Oxytocics'
p258
g2
((lp259
S'methylergonovine_maleate'
p260
atp261
Rp262
sS'Anticonv, Hydantoin Derivative'
p263
g2
((lp264
S'phenytoin_sodium__extended'
p265
atp266
Rp267
sS'Coag/Anticoag, Anticoagulants'
p268
g2
((lp269
S'rivaroxaban'
p270
aS'warfarin_sodium'
p271
aS'enoxaparin_sodium'
p272
atp273
Rp274
sS'Folic Acid & Derivatives'
p275
g2
((lp276
S'multivitamin_and_minerals'
p277
aS'folic_acid'
p278
aS'cyanocobalamin_folic_acid_pyridoxine'
p279
atp280
Rp281
sS'Antibiot, Tetracyclines'
p282
g2
((lp283
g48
aS'doxycycline'
p284
aS'minocycline_hydrochloride'
p285
aS'doxycycline_hyclate'
p286
atp287
Rp288
sS'Cardiac, Antiarrhythmic Agents'
p289
g2
((lp290
g68
aS'quinine_sulfate'
p291
aS'amiodarone_hydrochloride'
p292
atp293
Rp294
sS'Thy/Antithy, Thyroid/Hormones'
p295
g2
((lp296
S'thyroid'
p297
aS'liothyronine_sodium'
p298
aS'levothyroxine_sodium'
p299
atp300
Rp301
sS'Diuretic, Carb Anhydrase Inhib'
p302
g2
((lp303
S'acetazolamide'
p304
atp305
Rp306
sS'Diabetes Mell/Diab Supply'
p307
g2
((lp308
S'lancet_device'
p309
aS'glucose__blood_test'
p310
ag68
aS'glucose_meter'
p311
aS'lancet'
p312
aS'glucose_meter_test_control_strips'
p313
atp314
Rp315
sS'Antiplatelet Agents'
p316
g2
((lp317
S'cilostazol'
p318
aS'aspirin_dipyridamole'
p319
aS'clopidogrel_hydrogen_sulfate'
p320
atp321
Rp322
sS'ASH, Benzodiazepines'
p323
g2
((lp324
S'diazepam'
p325
aS'triazolam'
p326
aS'clorazepate_dipotassium'
p327
aS'alprazolam'
p328
aS'temazepam'
p329
aS'lorazepam'
p330
atp331
Rp332
sS'CNS Agents, Misc.'
p333
g2
((lp334
S'carbidopa_levodopa'
p335
aS'memantine_hydrochloride'
p336
aS'milnacipran_hydrochloride'
p337
aS'pramipexole_dihydrochloride'
p338
aS'atomoxetine_hydrochloride'
p339
aS'pregabalin'
p340
aS'ropinirole_hydrochloride'
p341
atp342
Rp343
sS'Muscle Relax, Skeletal, Misc'
p344
g2
((lp345
S'orphenadrine_citrate'
p346
atp347
Rp348
sS'Antibiot, Penicillins'
p349
g2
((lp350
S'amoxicillin_clavulanate_potassium'
p351
aS'amoxicillin;clarithromycin;lansoprazole'
p352
aS'dicloxacillin_sodium'
p353
aS'penicillin_v_potassium'
p354
aS'ampicillin'
p355
aS'amoxicillin'
p356
atp357
Rp358
sS'S/MM Miscellaneous'
p359
g2
((lp360
S'calcipotriene'
p361
ag32
aS'progesterone'
p362
aS'progesterone__micronized'
p363
aS'tacrolimus'
p364
ag277
aS'estropipate'
p365
aS'nitroglycerin'
p366
aS'diclofenac_epolamine'
p367
aS'estradiol'
p368
aS'diclofenac_sodium'
p369
aS'imiquimod'
p370
aS'pimecrolimus'
p371
aS'sodium_chloride'
p372
atp373
Rp374
sS'Analy/Antipyr,OpiatePart Agnst'
p375
g2
((lp376
S'buprenorphine_hydrochloride_naloxone_hydroch'
p377
atp378
Rp379
sS'Thy/Antithy, Antithyroid Agent'
p380
g2
((lp381
S'methimazole'
p382
atp383
Rp384
sS'Contact Lens Sol & Prep'
p385
g2
((lp386
g372
atp387
Rp388
sS'Multivit Prep'
p389
g2
((lp390
g111
atp391
Rp392
sS'Cough/Cough/Cold Comb'
p393
g2
((lp394
S'cough_cold_combination'
p395
aS'carbetapentane_tannate_chlorpheniramine_tann'
p396
aS'cpm_dm_hydrobrom_pse_hcl'
p397
ag8
aS'dextromethorphan_hydrobromide_guaifenesin'
p398
ag5
aS'bpm_pse_hcl'
p399
ag4
ag6
aS'carbetapentane_tan_phenyleph_tan_pyril_tan'
p400
aS'bpm_dm_hydrobrom_pse_hcl'
p401
aS'gg_hydrocod_bit_phenyleph_hcl'
p402
aS'cpm_methscopolamine_nitrate_pse_hcl'
p403
ag7
aS'dm_hydrobrom_promethazine_hcl'
p404
aS'cpm_phenyleph_hcl'
p405
aS'codeine_phos_gg_pse_hcl'
p406
aS'loratadine'
p407
aS'cpm_methscopolamine_nitrate_phenyleph_hcl'
p408
aS'codeine_phosphate_guaifenesin'
p409
atp410
Rp411
sS'Repl Preps, Sodium Chlor Preps'
p412
g2
((lp413
g372
atp414
Rp415
sS'Mast Cell Stabilizers'
p416
g2
((lp417
S'cromolyn_sodium'
p418
atp419
Rp420
sS'Misc Therapeutic Agents'
p421
g2
((lp422
S'risedronate_sodium'
p423
aS'alendronate_sodium_cholecalciferol'
p424
ag335
aS'alendronate_sodium'
p425
aS'permethrin'
p426
aS'phenazopyridine_hydrochloride'
p427
aS'tamsulosin_hydrochloride'
p428
ag92
aS'ibandronate_sodium'
p429
aS'pentosan_polysulfate_sodium'
p430
aS'belladonna_alkaloids_and_analgesics'
p431
ag372
atp432
Rp433
sS'Keratoplastic Agents S/MM'
p434
g2
((lp435
S'selenium_sulfide'
p436
atp437
Rp438
sS'Antiinfect, Antibiotics EENT'
p439
g2
((lp440
S'polymyxin_b_sulfate_trimethoprim_sulfate'
p441
aS'besifloxacin_hydrochloride'
p442
ag49
aS'tobramycin'
p443
aS'gatifloxacin'
p444
aS'ciprofloxacin_hydrochloride_dexamethasone'
p445
ag52
ag48
ag285
ag55
aS'levofloxacin'
p446
aS'ciprofloxacin_hydrochloride_hydrocortisone'
p447
ag56
aS'ofloxacin'
p448
ag50
aS'moxifloxacin_hydrochloride'
p449
aS'ciprofloxacin_hydrochloride'
p450
atp451
Rp452
sS'Caloric/Nutrition/Dietary Misc'
p453
g2
((lp454
g277
aS'prenatal_vitamins'
p455
aS'multivitamin_and_iron'
p456
ag56
aS'multivitamin__minerals__and_iron'
p457
atp458
Rp459
sS'Antibiot, Cephalosporin & Rel.'
p460
g2
((lp461
S'cefixime'
p462
aS'cefprozil'
p463
aS'cephalexin'
p464
aS'cefuroxime_axetil'
p465
aS'cefadroxil'
p466
aS'cefditoren_pivoxil'
p467
aS'cefaclor'
p468
aS'cefdinir'
p469
aS'cefpodoxime_proxetil'
p470
atp471
Rp472
sS'Antiinfect, Antiinflam EENT'
p473
g2
((lp474
S'dexamethasone_tobramycin'
p475
aS'hc_neomycin_sulf_polymyxin_b_sulf'
p476
aS'prednisolone_acetate_sulfacetamide_sodium'
p477
aS'dexamethasone_neomycin_sulfate_polymyxin_b_s'
p478
aS'loteprednol_etabonate_tobramycin'
p479
atp480
Rp481
sS'Progestins'
p482
g2
((lp483
S'norethindrone'
p484
aS'norethindrone_acetate'
p485
ag363
aS'medroxyprogesterone_acetate'
p486
ag362
atp487
Rp488
sS'Depig/Pig S/MM Depigment Agent'
p489
g2
((lp490
S'hydroquinone'
p491
atp492
Rp493
sS'Pituitary Hormones'
p494
g2
((lp495
S'desmopressin_acetate'
p496
atp497
Rp498
sS'Sulfonamides & Comb'
p499
g2
((lp500
S'sulfasalazine'
p501
aS'sulfamethoxazole_trimethoprim'
p502
atp503
Rp504
sS'Vitamin D'
p505
g2
((lp506
S'calcitriol'
p507
aS'ergocalciferol'
p508
atp509
Rp510
sS'S/MM Misc, Analgesics'
p511
g2
((lp512
g38
ag65
atp513
Rp514
sS'Contraceptive Cream/Foam/Devic'
p515
g2
((lp516
S'levonorgestrel'
p517
atp518
Rp519
sS'ASH, Barbiturates'
p520
g2
((lp521
g431
atp522
Rp523
sS'Parathyroid Hormones'
p524
g2
((lp525
S'calcitonin__salmon_'
p526
atp527
Rp528
sS'Eye/Ear/Nose/Throat Misc'
p529
g2
((lp530
S'olopatadine_hydrochloride'
p531
aS'timolol_maleate'
p532
aS'brimonidine_tartrate'
p533
aS'travoprost'
p534
aS'bimatoprost'
p535
aS'latanoprost'
p536
aS'dorzolamide_hydrochloride_timolol_maleate'
p537
ag418
aS'antipyrine_benzocaine'
p538
ag372
atp539
Rp540
sS'Analg/Antipyr, Salicylates'
p541
g2
((lp542
S'salsalate'
p543
aS'aspirin_butalbital_caffeine_codeine_phosphat'
p544
ag217
ag218
aS'diflunisal'
p545
ag219
atp546
Rp547
sS'Bioflavonoids & Comb'
p548
g2
((lp549
g457
atp550
Rp551
sS'Diuretics, Thiazides & Related'
p552
g2
((lp553
S'indapamide'
p554
aS'chlorthalidone'
p555
aS'metolazone'
p556
aS'hydrochlorothiazide'
p557
atp558
Rp559
sS'Eye/Ear/Nose/Throat Prep'
p560
g2
((lp561
g372
atp562
Rp563
sS'Irrigating Solutions'
p564
g2
((lp565
g372
atp566
Rp567
sS'Antidiabetic Agents, Insulins'
p568
g2
((lp569
S'insulin_human_isophane__nph__insulin_human_r'
p570
aS'insulin_aspart_insulin_aspart_protamine'
p571
aS'insulin_human_isophane__nph_'
p572
aS'insulin_glargine__recombinant'
p573
aS'insulin_lispro__recombinant'
p574
aS'insulin_human_regular'
p575
aS'insulin_detemir'
p576
aS'insulin_aspart__recombinant'
p577
atp578
Rp579
sS'Antacid/Adsorbents & Comb'
p580
g2
((lp581
S'mesalamine'
p582
atp583
Rp584
sS'Antidiabetic Ag, Sulfonylureas'
p585
g2
((lp586
S'glipizide'
p587
aS'glyburide'
p588
aS'glimepiride'
p589
aS'glyburide_metformin_hydrochloride'
p590
atp591
Rp592
sS'S/MM Soaps/Cleanser/Antiseptic'
p593
g2
((lp594
g32
aS'chlorhexidine_gluconate'
p595
atp596
Rp597
sS'Keratolytic Agents S/MM'
p598
g2
((lp599
g32
aS'salicylic_acid'
p600
atp601
Rp602
sS'Hypotensive Agents'
p603
g2
((lp604
S'clonidine'
p605
ag214
aS'methyldopa'
p606
aS'guanfacine_hydrochloride'
p607
aS'hydralazine_hydrochloride'
p608
aS'doxazosin_mesylate'
p609
atp610
Rp611
sS'Psychother,Tranq/Antipsychotic'
p612
g2
((lp613
S'quetiapine_fumarate'
p614
aS'risperidone'
p615
aS'ziprasidone_hydrochloride'
p616
ag204
ag207
aS'aripiprazole'
p617
aS'olanzapine'
p618
atp619
Rp620
sS'Vaccines'
p621
g2
((lp622
S'varicella_virus_vaccine'
p623
aS'influenza_virus_vaccine__subvirion_'
p624
aS'influenza_virus_vaccine'
p625
atp626
Rp627
sS'Muscle Relax, Skeletal Central'
p628
g2
((lp629
S'carisoprodol'
p630
aS'tizanidine_hydrochloride'
p631
aS'cyclobenzaprine_hydrochloride'
p632
aS'metaxalone'
p633
aS'methocarbamol'
p634
aS'chlorzoxazone'
p635
aS'baclofen'
p636
atp637
Rp638
sS'Repl Preps, Phosphorus Preps'
p639
g2
((lp640
S'na_phos__dibasic_na_phos__monobasic'
p641
atp642
Rp643
sS'Vascular 5HT1 Agonist'
p644
g2
((lp645
S'sumatriptan'
p646
aS'eletriptan_hydrobromide'
p647
aS'sumatriptan_succinate'
p648
aS'almotriptan_malate'
p649
aS'rizatriptan_benzoate'
p650
aS'zolmitriptan'
p651
aS'frovatriptan_succinate'
p652
atp653
Rp654
sS'Antiinflam Agents EENT'
p655
g2
((lp656
g476
ag159
ag161
aS'ketorolac_tromethamine'
p657
aS'fluticasone_furoate'
p658
ag162
ag163
aS'bromfenac_sodium'
p659
aS'ciclesonide'
p660
aS'loteprednol_etabonate'
p661
ag477
aS'bromfenac'
p662
aS'acetic_acid_hydrocortisone'
p663
ag226
aS'fluorometholone'
p664
ag369
ag224
ag171
aS'nepafenac'
p665
ag231
aS'difluprednate'
p666
ag177
ag229
ag230
ag227
atp667
Rp668
sS'Gonadotropins'
p669
g2
((lp670
S'chorionic_gonadotropin_alfa__recombinant'
p671
aS'chorionic_gonadotropin'
p672
aS'follicle_stimulating_hormone_luteinizing_hor'
p673
aS'follitropin_beta'
p674
atp675
Rp676
sS'Devices & Non-Drug Items'
p677
g2
((lp678
g309
aS'needle'
p679
ag310
aS'spacer__inhalation'
p680
aS'insulin_syringe_needle'
p681
ag311
ag312
atp682
Rp683
sS'Gastrointestinal Drug Misc'
p684
g2
((lp685
S'atropine_sulf_hyoscyamine_sulf_pb_scop_hydro'
p686
aS'dexlansoprazole'
p687
ag582
aS'omeprazole_sodium_bicarbonate'
p688
aS'rabeprazole_sodium'
p689
aS'misoprostol'
p690
aS'esomeprazole_magnesium'
p691
aS'omeprazole'
p692
aS'sucralfate'
p693
aS'tegaserod_maleate'
p694
aS'pantoprazole_sodium'
p695
aS'lansoprazole'
p696
ag27
atp697
Rp698
sS'Mouth & Gum Products'
p699
g2
((lp700
g176
atp701
Rp702
sS'Muscle Rel,Smooth-Genitour'
p703
g2
((lp704
S'oxybutynin_chloride'
p705
aS'solifenacin_succinate'
p706
aS'tolterodine_tartrate'
p707
aS'darifenacin_hydrobromide'
p708
atp709
Rp710
sS'Antidiabetic Agents, Misc'
p711
g2
((lp712
S'sitagliptin_phosphate'
p713
aS'pioglitazone_hydrochloride'
p714
aS'metformin_hydrochloride_pioglitazone_hydroch'
p715
aS'metformin_hydrochloride_sitagliptin_phosphat'
p716
aS'metformin_hydrochloride_rosiglitazone_maleat'
p717
aS'glucagon_hydrochloride'
p718
aS'rosiglitazone_maleate'
p719
aS'liraglutide'
p720
aS'metformin_hydrochloride'
p721
aS'exenatide'
p722
atp723
Rp724
sS'Dental Agents'
p725
g2
((lp726
tp727
Rp728
sS'Antineoplastic Agents'
p729
g2
((lp730
S'anastrozole'
p731
aS'letrozole'
p732
aS'fluorouracil'
p733
aS'megestrol_acetate'
p734
aS'tretinoin'
p735
aS'methotrexate'
p736
aS'leuprolide_acetate'
p737
aS'methotrexate_sodium'
p738
aS'tamoxifen_citrate'
p739
atp740
Rp741
sS'Caloric Agents Dextrose & Rel'
p742
g2
((lp743
g681
atp744
Rp745
sS'Eyewash/Eyestrm/Lubr/Tear'
p746
g2
((lp747
S'cyclosporine'
p748
ag372
atp749
Rp750
sS'Antiinf S/MM,Antifungal & Comb'
p751
g2
((lp752
S'terconazole'
p753
aS'betamethasone_dipropionate_clotrimazole'
p754
aS'clotrimazole'
p755
aS'oxiconazole_nitrate'
p756
aS'butoconazole_nitrate'
p757
ag241
aS'naftifine_hydrochloride'
p758
ag242
ag180
ag245
aS'ciclopirox'
p759
aS'econazole_nitrate'
p760
atp761
Rp762
sS'Estrogens & Comb'
p763
g2
((lp764
S'ethinyl_estradiol_etonogestrel'
p765
ag365
aS'estradiol_norethindrone_acetate'
p766
aS'ethinyl_estradiol_norgestimate'
p767
aS'conjugated_estrogens_medroxyprogesterone_ace'
p768
aS'esterified_estrogens_methyltestosterone'
p769
ag368
aS'conjugated_estrogens_synthetic_a'
p770
aS'raloxifene_hydrochloride'
p771
aS'conjugated_estrogens'
p772
atp773
Rp774
sS'Antiinf S/MM, Antiinf Loc Misc'
p775
g2
((lp776
g45
aS'benzoyl_peroxide'
p777
aS'silver_sulfadiazine'
p778
ag284
ag600
aS'metronidazole'
p779
aS'adapalene_benzoyl_peroxide'
p780
aS'azelaic_acid'
p781
atp782
Rp783
sS'Cell Stim/Proliferant S/MM'
p784
g2
((lp785
S'adapalene'
p786
aS'tazarotene'
p787
ag735
atp788
Rp789
sS'Vasodilating Agents'
p790
g2
((lp791
S'isosorbide_mononitrate'
p792
ag366
atp793
Rp794
sS'Contraceptive, Oral Comb'
p795
g2
((lp796
S'ethinyl_estradiol_norethindrone'
p797
aS'ethinyl_estradiol_levonorgestrel'
p798
aS'ethinyl_estradiol_ferrous_fum_norethindrone_'
p799
aS'desogestrel_ethinyl_estradiol'
p800
aS'ethinyl_estradiol_norethindrone;ferrous_fuma'
p801
aS'desogestrel_ethinyl_estradiol;ethinyl_estrad'
p802
ag767
aS'drospirenone_ethinyl_estradiol'
p803
aS'ethinyl_estradiol;ethinyl_estradiol_levonorg'
p804
aS'ethinyl_estradiol_norethindrone_ace;ferrous_'
p805
aS'ethinyl_estradiol_norethindrone_acetate'
p806
aS'estrogen_progestin_folate_combination'
p807
aS'ethinyl_estradiol_norelgestromin'
p808
ag517
aS'ethinyl_estradiol_norgestrel'
p809
aS'ethinyl_estradiol_ethynodiol_diacetate'
p810
atp811
Rp812
sS'Pharmaceutical Aids/Adjuv'
p813
g2
((lp814
S'polyethylene_glycol_3350'
p815
ag27
atp816
Rp817
sS'Antitussives/Cold Comb'
p818
g2
((lp819
S'codeine_phos_phenyleph_hcl_promethazine_hcl'
p820
ag5
aS'benzonatate'
p821
ag7
ag400
aS'hydrocod_bit_phenyleph_hcl_pyril_mal'
p822
aS'cpm_hydrocod_bit_phenyleph_hcl'
p823
ag404
ag395
ag396
ag397
ag8
ag401
aS'homatropine_methylbromide_hydrocodone_bitart'
p824
ag406
ag398
aS'codeine_phosphate_promethazine_hydrochloride'
p825
aS'cpm_hydrocod_bit_pse_hcl'
p826
ag65
aS'hydrocodone_bitartrate_potassium_guaiacolsul'
p827
aS'chlorpheniramine_polistirex_hydrocodone_poli'
p828
ag4
aS'brompheniramine_maleate'
p829
aS'promethazine_hydrochloride'
p830
atp831
Rp832
sS'Diuretics, Potassium-Sparing'
p833
g2
((lp834
S'spironolactone'
p835
aS'hydrochlorothiazide_triamterene'
p836
aS'hydrochlorothiazide_spironolactone'
p837
atp838
Rp839
sS'Quinolones'
p840
g2
((lp841
S'gemifloxacin_mesylate'
p842
ag444
ag446
aS'ciprofloxacin_ciprofloxacin_hydrochloride'
p843
ag448
ag449
ag450
atp844
Rp845
sS'Diuretics, Loop Diuretics'
p846
g2
((lp847
S'furosemide'
p848
aS'bumetanide'
p849
aS'torsemide'
p850
atp851
Rp852
sS'Antiinfect, Sulfonamides EENT'
p853
g2
((lp854
g59
atp855
Rp856
sS'Anti-Infectives, Misc'
p857
g2
((lp858
g779
aS'tinidazole'
p859
aS'atovaquone_proguanil_hydrochloride'
p860
aS'trimethoprim'
p861
atp862
Rp863
sS'Anxiolytic/Sedative/Hypnot'
p864
g2
((lp865
S'eszopiclone'
p866
ag64
aS'hydroxyzine_pamoate'
p867
aS'buspirone_hydrochloride'
p868
aS'ramelteon'
p869
aS'zaleplon'
p870
aS'zolpidem_tartrate'
p871
aS'hydroxyzine_hydrochloride'
p872
atp873
Rp874
sS'Cath&Lax, Laxatives/Enemas'
p875
g2
((lp876
S'k_cl_na_bicarb_na_cl_na_sulf_peg'
p877
aS'lubiprostone'
p878
ag27
aS'k_cl_na_bicarb_na_cl_polyethylene_glycol_335'
p879
atp880
Rp881
sS'Antiinf S/MM, Scabic/Pediculic'
p882
g2
((lp883
g426
aS'malathion'
p884
atp885
Rp886
sS'Cardiac, Beta Blockers'
p887
g2
((lp888
g532
aS'metoprolol_tartrate'
p889
aS'atenolol_chlorthalidone'
p890
aS'bisoprolol_fumarate_hydrochlorothiazide'
p891
aS'bisoprolol_fumarate'
p892
aS'atenolol'
p893
aS'carvedilol'
p894
aS'propranolol_hydrochloride'
p895
aS'sotalol_hydrochloride'
p896
aS'nebivolol_hydrochloride'
p897
aS'metoprolol_succinate'
p898
aS'nadolol'
p899
atp900
Rp901
sS'Cholelitholytic Agents'
p902
g2
((lp903
S'ursodiol'
p904
atp905
Rp906
sS'Antibiot, Erythromycn&Macrolid'
p907
g2
((lp908
S'erythromycin_stearate'
p909
aS'telithromycin'
p910
ag51
ag56
aS'clarithromycin'
p911
aS'azithromycin'
p912
atp913
Rp914
sS'Antineoplastics S/MM'
p915
g2
((lp916
g733
atp917
Rp918
sS'Vasoconstrictors EENT'
p919
g2
((lp920
S'epinephrine'
p921
atp922
Rp923
sS'Anticonvulsant, Benzodiazepine'
p924
g2
((lp925
S'clonazepam'
p926
atp927
Rp928
sS'Analg/Antipyr,Nonstr/Antiinflm'
p929
g2
((lp930
g657
aS'sulindac'
p931
aS'ibuprofen'
p932
aS'diclofenac_sodium_misoprostol'
p933
ag659
aS'rofecoxib'
p934
aS'oxaprozin'
p935
aS'valdecoxib'
p936
aS'meloxicam'
p937
aS'naproxen'
p938
aS'diclofenac_potassium'
p939
ag369
aS'piroxicam'
p940
aS'nabumetone'
p941
aS'etodolac'
p942
aS'mefenamic_acid'
p943
aS'flurbiprofen'
p944
aS'celecoxib'
p945
aS'naproxen_sodium'
p946
aS'naproxen_sodium_sumatriptan_succinate'
p947
aS'ketoprofen'
p948
aS'indomethacin'
p949
atp950
Rp951
sS'Autonomic, Nicotine Preps'
p952
g2
((lp953
S'varenicline'
p954
aS'nicotine'
p955
atp956
Rp957
sS'Psychother, Antidepressants'
p958
g2
((lp959
S'vilazodone_hydrochloride'
p960
aS'imipramine_hydrochloride'
p961
ag64
aS'nortriptyline_hydrochloride'
p962
aS'citalopram_hydrobromide'
p963
aS'venlafaxine_hydrochloride'
p964
aS'paroxetine_hydrochloride'
p965
aS'amitriptyline_hydrochloride'
p966
aS'duloxetine_hydrochloride'
p967
aS'mirtazapine'
p968
aS'trazodone_hydrochloride'
p969
aS'escitalopram_oxalate'
p970
aS'sertraline_hydrochloride'
p971
aS'fluoxetine_hydrochloride'
p972
aS'bupropion_hydrochloride'
p973
aS'desvenlafaxine_succinate'
p974
atp975
Rp976
sS'Antibiot, Aminoglycosides'
p977
g2
((lp978
g43
ag352
ag55
ag443
atp979
Rp980
sS'Antiinf S/MM,Antivirals & Comb'
p981
g2
((lp982
S'penciclovir'
p983
ag101
atp984
Rp985
sS'Analg/Antipyr, Opiate Agonists'
p986
g2
((lp987
S'apap_butalbital_caff_codeine_phos'
p988
aS'acetaminophen_hydrocodone_bitartrate'
p989
aS'methadone_hydrochloride'
p990
ag826
aS'hydrocodone_bitartrate_ibuprofen'
p991
ag395
aS'acetaminophen_oxycodone_hydrochloride'
p992
ag827
ag544
aS'meperidine_hcl_promethazine_hcl'
p993
aS'tapentadol_hydrochloride'
p994
aS'oxycodone_hydrochloride'
p995
ag822
aS'meperidine_hydrochloride'
p996
ag409
aS'acetaminophen_codeine_phosphate'
p997
aS'acetaminophen_propoxyphene_napsylate'
p998
ag406
aS'hydromorphone_hydrochloride'
p999
aS'fentanyl'
p1000
aS'morphine_sulfate'
p1001
atp1002
Rp1003
sS'S/MM Misc, Astringents'
p1004
g2
((lp1005
S'aluminum_chloride'
p1006
atp1007
Rp1008
sS'Anesthetics, Local'
p1009
g2
((lp1010
g68
ag67
atp1011
Rp1012
sS'Parasympathomimetic'
p1013
g2
((lp1014
S'donepezil_hydrochloride'
p1015
atp1016
Rp1017
sS'Antihistamines & Comb'
p1018
g2
((lp1019
g5
ag399
ag404
aS'cpm_pse_hcl'
p1020
aS'fexofenadine_hcl_pse_hcl'
p1021
ag395
aS'fexofenadine_hydrochloride'
p1022
ag397
ag401
ag403
ag408
aS'desloratadine_pseudoephedrine_sulfate'
p1023
aS'phenyleph_hcl_promethazine_hcl'
p1024
aS'levocetirizine_dihydrochloride'
p1025
aS'cetirizine_hcl_pse_hcl'
p1026
aS'chlorpheniramine_tannate_phenylephrine_tanna'
p1027
ag407
aS'cetirizine_hydrochloride'
p1028
ag65
aS'desloratadine'
p1029
ag829
ag405
aS'cyproheptadine_hydrochloride'
p1030
ag830
atp1031
Rp1032
sS'Antimanic Agents'
p1033
g2
((lp1034
S'lithium_carbonate'
p1035
aS'carbamazepine'
p1036
atp1037
Rp1038
sS'Ovulation Stimulants'
p1039
g2
((lp1040
S'clomiphene_citrate'
p1041
atp1042
Rp1043
sS'Anticholinergic'
p1044
g2
((lp1045
g403
aS'ipratropium_bromide'
p1046
aS'tiotropium_bromide'
p1047
atp1048
Rp1049
sS'Anthelmintics'
p1050
g2
((lp1051
S'mebendazole'
p1052
atp1053
Rp1054
sS'Cath&Lax, Laxatives, Saline'
p1055
g2
((lp1056
S'magnesium_sulfate_potassium_sulfate_sodium_s'
p1057
ag641
atp1058
Rp1059
sS'Antichol/Antimuscarin/Antispas'
p1060
g2
((lp1061
S'chlordiazepoxide_hydrochloride_clidinium_bro'
p1062
aS'glycopyrrolate'
p1063
aS'atropine_sulfate'
p1064
aS'dicyclomine_hydrochloride'
p1065
aS'scopolamine'
p1066
ag686
aS'hyoscyamine_sulfate'
p1067
atp1068
Rp1069
sS'Multivit Prep,Multivit Fluorid'
p1070
g2
((lp1071
g111
atp1072
Rp1073
sS'Ammonia Detoxicants'
p1074
g2
((lp1075
S'lactulose'
p1076
atp1077
Rp1078
sS'Histamine (H2) Antagonist'
p1079
g2
((lp1080
S'famotidine'
p1081
aS'ranitidine_hydrochloride'
p1082
aS'nizatidine'
p1083
aS'cimetidine'
p1084
atp1085
Rp1086
sS'Sulfones'
p1087
g2
((lp1088
S'dapsone'
p1089
atp1090
Rp1091
sS'Digestants & Comb'
p1092
g2
((lp1093
S'amylase_lipase_protease'
p1094
atp1095
Rp1096
sS'Muscle Rel,Smooth-Respirat'
p1097
g2
((lp1098
S'theophylline'
p1099
atp1100
Rp1101
sS'Antimalarial Agents'
p1102
g2
((lp1103
S'chloroquine_phosphate'
p1104
ag291
aS'hydroxychloroquine_sulfate'
p1105
aS'mefloquine_hydrochloride'
p1106
atp1107
Rp1108
sS'Antidiarrhea Agents'
p1109
g2
((lp1110
S'loperamide_hydrochloride'
p1111
aS'atropine_sulfate_diphenoxylate_hydrochloride'
p1112
atp1113
Rp1114
sS'Anticonvulsants, Misc'
p1115
g2
((lp1116
S'gabapentin'
p1117
aS'oxcarbazepine'
p1118
ag1036
aS'zonisamide'
p1119
aS'topiramate'
p1120
aS'divalproex_sodium'
p1121
aS'lamotrigine'
p1122
aS'levetiracetam'
p1123
atp1124
Rp1125
sS'Urinary Anti-Infectives'
p1126
g2
((lp1127
S'nitrofurantoin_monohydrate_nitrofurantoin__m'
p1128
aS'nitrofurantoin__macrocrystals'
p1129
ag431
atp1130
Rp1131
sS'Antiallergic Agents'
p1132
g2
((lp1133
S'epinastine_hydrochloride'
p1134
ag408
aS'azelastine_hydrochloride'
p1135
atp1136
Rp1137
sS'Immunosuppressants'
p1138
g2
((lp1139
S'etanercept'
p1140
aS'azathioprine'
p1141
aS'adalimumab'
p1142
ag748
ag364
atp1143
Rp1144
sS'Mydriatics EENT'
p1145
g2
((lp1146
g1064
atp1147
Rp1148
sS'Repl Preps, Calcium Supp'
p1149
g2
((lp1150
g277
atp1151
Rp1152
sS'S/MM Skin & Wound Dress/Soaks'
p1153
g2
((lp1154
g595
ag372
atp1155
Rp1156
sS'Anesthetics, Local EENT'
p1157
g2
((lp1158
g538
atp1159
Rp1160
sS'Sympathomimetic Agents'
p1161
g2
((lp1162
S'albuterol_sulfate_ipratropium_bromide'
p1163
aS'pirbuterol_acetate'
p1164
ag399
ag7
aS'salmeterol_xinafoate'
p1165
ag1021
ag395
ag397
ag8
ag403
ag10
ag408
aS'levalbuterol_tartrate'
p1166
ag1020
aS'albuterol'
p1167
ag921
ag1027
aS'albuterol_sulfate'
p1168
aS'levalbuterol_hydrochloride'
p1169
ag6
ag405
aS'apap_dichloralphenazone_isometheptene_mucate'
p1170
atp1171
Rp1172
sS'multivitamin'
p1173
g2
((lp1174
S'niacin'
p1175
ag455
aS'vitamin_b_complex__iron__and_vitamin_c'
p1176
ag457
aS'cyanocobalamin'
p1177
ag277
ag456
ag279
atp1178
Rp1179
sS'Antibiotics, Misc'
p1180
g2
((lp1181
g47
ag50
aS'retapamulin'
p1182
aS'clindamycin_palmitate_hydrochloride'
p1183
ag53
aS'vancomycin_hydrochloride'
p1184
aS'rifaximin'
p1185
atp1186
Rp1187
s(dp1188
S'Cardiac, Calcium Channel'
p1189
g2
((lp1190
S'nifedipine'
p1191
aS'amlodipine_besylate_valsartan'
p1192
aS'amlodipine_besylate'
p1193
aS'amlodipine_besylate_olmesartan_medoxomil'
p1194
aS'verapamil_hydrochloride'
p1195
aS'amlodipine_besylate_benazepril_hydrochloride'
p1196
aS'felodipine'
p1197
aS'diltiazem_hydrochloride'
p1198
atp1199
Rp1200
sS'Emoll/Moist/Demul/Protect S/MM'
p1201
g2
((lp1202
S'ammonium_lactate'
p1203
aS'urea'
p1204
aS'cream__multi_ingredient'
p1205
atp1206
Rp1207
sS'Antihyperlipidemic Drugs'
p1208
g2
((lp1209
S'atorvastatin_calcium'
p1210
aS'fenofibrate__micronized'
p1211
aS'lovastatin'
p1212
aS'omega-3-acid_ethyl_esters'
p1213
aS'cholestyramine'
p1214
aS'ezetimibe_simvastatin'
p1215
aS'fenofibrate'
p1216
aS'ezetimibe'
p1217
aS'colesevelam_hydrochloride'
p1218
aS'fluvastatin_sodium'
p1219
aS'fenofibric_acid'
p1220
aS'rosuvastatin_calcium'
p1221
aS'pravastatin_sodium'
p1222
aS'simvastatin'
p1223
aS'gemfibrozil'
p1224
atp1225
Rp1226
sS'Repl Preps, Potassium Supp'
p1227
g2
((lp1228
S'potassium_chloride'
p1229
atp1230
Rp1231
sS'Antivirals'
p1232
g2
((lp1233
S'valacyclovir_hydrochloride'
p1234
aS'acyclovir'
p1235
aS'oseltamivir_phosphate'
p1236
aS'famciclovir'
p1237
aS'amantadine_hydrochloride'
p1238
atp1239
Rp1240
sS'Histamine (H2) Antagonist'
p1241
g2
((lp1242
S'famotidine'
p1243
aS'ranitidine_hydrochloride'
p1244
aS'nizatidine'
p1245
aS'cimetidine'
p1246
atp1247
Rp1248
sS'Fluoride Preparations'
p1249
g2
((lp1250
S'multivitamin_and_fluoride'
p1251
aS'sodium_fluoride'
p1252
atp1253
Rp1254
sS'Stimulant, Amphetamine Type'
p1255
g2
((lp1256
S'methylphenidate_hydrochloride'
p1257
aS'phentermine_hydrochloride'
p1258
aS'amphetamine_salt_combination'
p1259
aS'lisdexamfetamine_dimesylate'
p1260
aS'modafinil'
p1261
aS'dexmethylphenidate_hydrochloride'
p1262
atp1263
Rp1264
sS'Cardiac, ACE Inhibitors'
p1265
g2
((lp1266
S'fosinopril_sodium'
p1267
aS'hydrochlorothiazide_lisinopril'
p1268
aS'benazepril_hydrochloride_hydrochlorothiazide'
p1269
aS'benazepril_hydrochloride'
p1270
aS'ramipril'
p1271
aS'enalapril_maleate'
p1272
aS'captopril'
p1273
aS'quinapril_hydrochloride'
p1274
aS'lisinopril'
p1275
atp1276
Rp1277
sS'Cardiac Drugs'
p1278
g2
((lp1279
S'hydrochlorothiazide_olmesartan_medoxomil'
p1280
aS'candesartan_cilexetil'
p1281
aS'telmisartan'
p1282
aS'hydrochlorothiazide_valsartan'
p1283
aS'olmesartan_medoxomil'
p1284
aS'valsartan'
p1285
aS'hydrochlorothiazide_losartan_potassium'
p1286
aS'amlodipine_besylate_atorvastatin_calcium'
p1287
aS'hydrochlorothiazide_irbesartan'
p1288
aS'losartan_potassium'
p1289
aS'irbesartan'
p1290
aS'hydrochlorothiazide_telmisartan'
p1291
atp1292
Rp1293
sS'Antigout Agents'
p1294
g2
((lp1295
S'allopurinol'
p1296
aS'colchicine'
p1297
atp1298
Rp1299
sS'Leukotriene Modifiers'
p1300
g2
((lp1301
S'montelukast_sodium'
p1302
atp1303
Rp1304
sS'Cardiac, Cardiac Glycosides'
p1305
g2
((lp1306
S'digoxin'
p1307
atp1308
Rp1309
sS'Antiemetics'
p1310
g2
((lp1311
S'ondansetron_hydrochloride'
p1312
aS'metoclopramide_hydrochloride'
p1313
aS'benzocaine_trimethobenzamide_hydrochloride'
p1314
aS'prochlorperazine_maleate'
p1315
aS'trimethobenzamide_hydrochloride'
p1316
aS'meclizine_hydrochloride'
p1317
aS'prochlorperazine'
p1318
aS'ondansetron'
p1319
aS'aprepitant'
p1320
atp1321
Rp1322
sS'Adrenals & Comb'
p1323
g2
((lp1324
S'betamethasone_dipropionate__augmented'
p1325
aS'fluocinonide'
p1326
aS'betamethasone_dipropionate_calcipotriene'
p1327
aS'budesonide_formoterol_fumarate'
p1328
aS'chloroxylenol_hc_pramoxine_hcl'
p1329
aS'halobetasol_propionate'
p1330
aS'mometasone_furoate'
p1331
aS'methylprednisolone'
p1332
aS'ketorolac_tromethamine'
p1333
aS'fluticasone_furoate'
p1334
aS'hydrocortisone'
p1335
aS'fluticasone_propionate'
p1336
aS'bromfenac_sodium'
p1337
aS'alclometasone_dipropionate'
p1338
aS'betamethasone_dipropionate'
p1339
aS'hydrocortisone_butyrate'
p1340
aS'formoterol_fumarate_mometasone_furoate'
p1341
aS'prednisolone_acetate_sulfacetamide_sodium'
p1342
aS'bromfenac'
p1343
aS'acetic_acid_hydrocortisone'
p1344
aS'loteprednol_etabonate'
p1345
aS'fluorometholone'
p1346
aS'diclofenac_sodium'
p1347
aS'clobetasol_propionate'
p1348
aS'fluocinolone_acetonide'
p1349
aS'betamethasone_valerate'
p1350
aS'desoximetasone'
p1351
aS'clocortolone_pivalate'
p1352
aS'prednisolone'
p1353
aS'prednisone'
p1354
aS'ciclesonide'
p1355
aS'budesonide'
p1356
aS'hydrocortisone_valerate'
p1357
aS'nepafenac'
p1358
aS'hydrocortisone_acetate_pramoxine_hydrochlori'
p1359
aS'hc_neomycin_sulf_polymyxin_b_sulf'
p1360
aS'beclomethasone_dipropionate'
p1361
aS'difluprednate'
p1362
aS'desonide'
p1363
aS'flurandrenolide'
p1364
aS'triamcinolone_acetonide'
p1365
aS'dexamethasone'
p1366
aS'prednisolone_acetate'
p1367
aS'fludrocortisone_acetate'
p1368
aS'prednisolone_sodium_phosphate'
p1369
aS'flunisolide'
p1370
aS'hydrocortisone_acetate'
p1371
aS'diflorasone_diacetate'
p1372
aS'nystatin_triamcinolone_acetonide'
p1373
aS'fluticasone_propionate_salmeterol_xinafoate'
p1374
atp1375
Rp1376
sS'Gastrointestinal Drug Misc'
p1377
g2
((lp1378
S'omeprazole'
p1379
aS'dexlansoprazole'
p1380
aS'mesalamine'
p1381
aS'omeprazole_sodium_bicarbonate'
p1382
aS'rabeprazole_sodium'
p1383
aS'misoprostol'
p1384
aS'esomeprazole_magnesium'
p1385
aS'atropine_sulf_hyoscyamine_sulf_pb_scop_hydro'
p1386
aS'sucralfate'
p1387
aS'tegaserod_maleate'
p1388
aS'pantoprazole_sodium'
p1389
aS'lansoprazole'
p1390
aS'peg_electrolyte_lavage_solution'
p1391
atp1392
Rp1393
sS'Antituberculosis Agents'
p1394
g2
((lp1395
S'rifampin'
p1396
atp1397
Rp1398
sS'Vitamin A & Derivatives'
p1399
g2
((lp1400
S'isotretinoin'
p1401
atp1402
Rp1403
sS'Oxytocics'
p1404
g2
((lp1405
S'methylergonovine_maleate'
p1406
atp1407
Rp1408
sS'Anticonv, Hydantoin Derivative'
p1409
g2
((lp1410
S'phenytoin_sodium__extended'
p1411
atp1412
Rp1413
sS'Coag/Anticoag, Anticoagulants'
p1414
g2
((lp1415
S'rivaroxaban'
p1416
aS'warfarin_sodium'
p1417
aS'enoxaparin_sodium'
p1418
atp1419
Rp1420
sS'Cardiac, Antiarrhythmic Agents'
p1421
g2
((lp1422
S'lidocaine_hydrochloride'
p1423
aS'quinine_sulfate'
p1424
aS'amiodarone_hydrochloride'
p1425
atp1426
Rp1427
sS'Diuretic, Carb Anhydrase Inhib'
p1428
g2
((lp1429
S'acetazolamide'
p1430
atp1431
Rp1432
sS'Digestants & Comb'
p1433
g2
((lp1434
S'amylase_lipase_protease'
p1435
atp1436
Rp1437
sS'Antiplatelet Agents'
p1438
g2
((lp1439
S'cilostazol'
p1440
aS'aspirin_dipyridamole'
p1441
aS'clopidogrel_hydrogen_sulfate'
p1442
atp1443
Rp1444
sS'CNS Agents, Misc.'
p1445
g2
((lp1446
S'carbidopa_levodopa'
p1447
aS'milnacipran_hydrochloride'
p1448
aS'memantine_hydrochloride'
p1449
aS'pramipexole_dihydrochloride'
p1450
aS'atomoxetine_hydrochloride'
p1451
aS'pregabalin'
p1452
aS'ropinirole_hydrochloride'
p1453
atp1454
Rp1455
sS'Muscle Relax, Skeletal, Misc'
p1456
g2
((lp1457
S'orphenadrine_citrate'
p1458
atp1459
Rp1460
sS'Antibiot, Penicillins'
p1461
g2
((lp1462
S'amoxicillin_clavulanate_potassium'
p1463
aS'amoxicillin;clarithromycin;lansoprazole'
p1464
aS'dicloxacillin_sodium'
p1465
aS'penicillin_v_potassium'
p1466
aS'ampicillin'
p1467
aS'amoxicillin'
p1468
atp1469
Rp1470
sS'Analy/Antipyr,OpiatePart Agnst'
p1471
g2
((lp1472
S'buprenorphine_hydrochloride_naloxone_hydroch'
p1473
atp1474
Rp1475
sS'Thy/Antithy, Antithyroid Agent'
p1476
g2
((lp1477
S'methimazole'
p1478
atp1479
Rp1480
sS'Misc Therapeutic Agents'
p1481
g2
((lp1482
S'alendronate_sodium_cholecalciferol'
p1483
aS'multivitamin_and_minerals'
p1484
aS'nitroglycerin'
p1485
aS'norethindrone'
p1486
aS'pentosan_polysulfate_sodium'
p1487
aS'imiquimod'
p1488
aS'sodium_chloride'
p1489
aS'risedronate_sodium'
p1490
aS'belladonna_alkaloids_and_analgesics'
p1491
aS'tacrolimus'
p1492
aS'norethindrone_acetate'
p1493
aS'estradiol'
p1494
ag1347
ag1204
aS'chlorhexidine_gluconate'
p1495
aS'progesterone__micronized'
p1496
aS'phenazopyridine_hydrochloride'
p1497
aS'tamsulosin_hydrochloride'
p1498
ag1229
aS'ibandronate_sodium'
p1499
aS'pimecrolimus'
p1500
aS'calcipotriene'
p1501
ag1447
aS'estropipate'
p1502
aS'medroxyprogesterone_acetate'
p1503
aS'alendronate_sodium'
p1504
aS'progesterone'
p1505
aS'permethrin'
p1506
aS'diclofenac_epolamine'
p1507
atp1508
Rp1509
sS'Keratoplastic Agents S/MM'
p1510
g2
((lp1511
S'selenium_sulfide'
p1512
atp1513
Rp1514
sS'Antiinfect, Antibiotics EENT'
p1515
g2
((lp1516
S'neomycin_sulfate'
p1517
aS'erythromycin_stearate'
p1518
aS'doxycycline_hyclate'
p1519
aS'tetracycline_hydrochloride'
p1520
aS'gramicidin_neomycin_sulfate_polymyxin_b_sulf'
p1521
aS'tobramycin'
p1522
aS'retapamulin'
p1523
aS'clindamycin_palmitate_hydrochloride'
p1524
aS'doxycycline'
p1525
aS'ciprofloxacin_hydrochloride_dexamethasone'
p1526
aS'benzoyl_peroxide_clindamycin_phosphate'
p1527
aS'vancomycin_hydrochloride'
p1528
aS'clindamycin_phosphate'
p1529
aS'mupirocin_calcium'
p1530
aS'polymyxin_b_sulfate_trimethoprim_sulfate'
p1531
ag1464
aS'levofloxacin'
p1532
aS'gentamicin_sulfate'
p1533
aS'mupirocin'
p1534
aS'sulfacetamide_sodium_sulfur'
p1535
aS'bacitracin'
p1536
aS'rifaximin'
p1537
aS'benzoyl_peroxide_erythromycin'
p1538
aS'besifloxacin_hydrochloride'
p1539
aS'gatifloxacin'
p1540
aS'clindamycin_hydrochloride'
p1541
aS'minocycline_hydrochloride'
p1542
aS'clarithromycin'
p1543
aS'ofloxacin'
p1544
aS'sulfacetamide_sodium'
p1545
aS'moxifloxacin_hydrochloride'
p1546
aS'telithromycin'
p1547
aS'erythromycin_ethylsuccinate'
p1548
aS'bacitracin_zinc_polymyxin_b_sulfate'
p1549
aS'ciprofloxacin_ciprofloxacin_hydrochloride'
p1550
aS'erythromycin'
p1551
aS'ciprofloxacin_hydrochloride_hydrocortisone'
p1552
aS'clindamycin_phosphate_tretinoin'
p1553
aS'azithromycin'
p1554
aS'gemifloxacin_mesylate'
p1555
aS'ciprofloxacin_hydrochloride'
p1556
atp1557
Rp1558
sS'Antiinf S/MM, Scabic/Pediculic'
p1559
g2
((lp1560
g1506
aS'malathion'
p1561
atp1562
Rp1563
sS'Antibiot, Cephalosporin & Rel.'
p1564
g2
((lp1565
S'cefixime'
p1566
aS'cefprozil'
p1567
aS'cephalexin'
p1568
aS'cefuroxime_axetil'
p1569
aS'cefadroxil'
p1570
aS'cefditoren_pivoxil'
p1571
aS'cefaclor'
p1572
aS'cefdinir'
p1573
aS'cefpodoxime_proxetil'
p1574
atp1575
Rp1576
sS'Antiinfect, Antiinflam EENT'
p1577
g2
((lp1578
S'dexamethasone_neomycin_sulfate_polymyxin_b_s'
p1579
ag1360
ag1342
aS'dexamethasone_tobramycin'
p1580
aS'loteprednol_etabonate_tobramycin'
p1581
atp1582
Rp1583
sS'Depig/Pig S/MM Depigment Agent'
p1584
g2
((lp1585
S'hydroquinone'
p1586
atp1587
Rp1588
sS'Pituitary Hormones'
p1589
g2
((lp1590
S'desmopressin_acetate'
p1591
atp1592
Rp1593
sS'Sulfonamides & Comb'
p1594
g2
((lp1595
S'sulfasalazine'
p1596
aS'sulfamethoxazole_trimethoprim'
p1597
atp1598
Rp1599
sS'Vitamin D'
p1600
g2
((lp1601
S'calcitriol'
p1602
aS'ergocalciferol'
p1603
atp1604
Rp1605
sS'Parathyroid Hormones'
p1606
g2
((lp1607
S'calcitonin__salmon_'
p1608
atp1609
Rp1610
sS'Eye/Ear/Nose/Throat Misc'
p1611
g2
((lp1612
S'olopatadine_hydrochloride'
p1613
aS'timolol_maleate'
p1614
aS'brimonidine_tartrate'
p1615
aS'travoprost'
p1616
aS'bimatoprost'
p1617
aS'latanoprost'
p1618
aS'dorzolamide_hydrochloride_timolol_maleate'
p1619
aS'cromolyn_sodium'
p1620
aS'antipyrine_benzocaine'
p1621
ag1489
atp1622
Rp1623
sS'Analg/Antipyr, Salicylates'
p1624
g2
((lp1625
S'clonidine_hydrochloride'
p1626
aS'tramadol_hydrochloride'
p1627
aS'aspirin_butalbital_caffeine_codeine_phosphat'
p1628
aS'aspirin_butalbital_caffeine'
p1629
aS'acetaminophen_butalbital'
p1630
aS'acetaminophen_tramadol_hydrochloride'
p1631
aS'salsalate'
p1632
aS'diflunisal'
p1633
aS'acetaminophen_butalbital_caffeine'
p1634
atp1635
Rp1636
sS'Cardiac, Alpha-Beta Blockers'
p1637
g2
((lp1638
S'labetalol_hydrochloride'
p1639
atp1640
Rp1641
sS'Diuretics, Thiazides & Related'
p1642
g2
((lp1643
S'indapamide'
p1644
aS'chlorthalidone'
p1645
aS'metolazone'
p1646
aS'hydrochlorothiazide'
p1647
atp1648
Rp1649
sS'Antidiabetic Agents, Insulins'
p1650
g2
((lp1651
S'insulin_human_isophane__nph__insulin_human_r'
p1652
aS'insulin_aspart_insulin_aspart_protamine'
p1653
aS'insulin_human_isophane__nph_'
p1654
aS'insulin_glargine__recombinant'
p1655
aS'insulin_lispro__recombinant'
p1656
aS'insulin_human_regular'
p1657
aS'insulin_detemir'
p1658
aS'insulin_aspart__recombinant'
p1659
atp1660
Rp1661
sS'Antidiabetic Ag, Sulfonylureas'
p1662
g2
((lp1663
S'glipizide'
p1664
aS'glyburide'
p1665
aS'glimepiride'
p1666
aS'glyburide_metformin_hydrochloride'
p1667
atp1668
Rp1669
sS'Analg/Antipyr, Opiate Agonists'
p1670
g2
((lp1671
S'apap_butalbital_caff_codeine_phos'
p1672
aS'acetaminophen_hydrocodone_bitartrate'
p1673
aS'methadone_hydrochloride'
p1674
aS'hydrocodone_bitartrate_ibuprofen'
p1675
aS'tapentadol_hydrochloride'
p1676
aS'acetaminophen_oxycodone_hydrochloride'
p1677
aS'fentanyl'
p1678
aS'aspirin_butalbital_caffeine_codeine_phosphat'
p1679
aS'meperidine_hcl_promethazine_hcl'
p1680
aS'acetaminophen_codeine_phosphate'
p1681
aS'oxycodone_hydrochloride'
p1682
aS'meperidine_hydrochloride'
p1683
aS'codeine_phosphate_guaifenesin'
p1684
aS'acetaminophen_propoxyphene_napsylate'
p1685
aS'hydromorphone_hydrochloride'
p1686
aS'morphine_sulfate'
p1687
atp1688
Rp1689
sS'Keratolytic Agents S/MM'
p1690
g2
((lp1691
g1204
ag1495
aS'salicylic_acid'
p1692
atp1693
Rp1694
sS'Hypotensive Agents'
p1695
g2
((lp1696
S'clonidine'
p1697
ag1626
aS'methyldopa'
p1698
aS'guanfacine_hydrochloride'
p1699
aS'hydralazine_hydrochloride'
p1700
aS'doxazosin_mesylate'
p1701
atp1702
Rp1703
sS'Psychother,Tranq/Antipsychotic'
p1704
g2
((lp1705
S'quetiapine_fumarate'
p1706
aS'risperidone'
p1707
aS'ziprasidone_hydrochloride'
p1708
ag1315
ag1318
aS'aripiprazole'
p1709
aS'olanzapine'
p1710
atp1711
Rp1712
sS'Vaccines'
p1713
g2
((lp1714
S'varicella_virus_vaccine'
p1715
aS'influenza_virus_vaccine__subvirion_'
p1716
aS'influenza_virus_vaccine'
p1717
atp1718
Rp1719
sS'Anticonvulsant, Benzodiazepine'
p1720
g2
((lp1721
S'clonazepam'
p1722
atp1723
Rp1724
sS'Repl Preps, Phosphorus Preps'
p1725
g2
((lp1726
S'na_phos__dibasic_na_phos__monobasic'
p1727
atp1728
Rp1729
sS'Vascular 5HT1 Agonist'
p1730
g2
((lp1731
S'sumatriptan'
p1732
aS'eletriptan_hydrobromide'
p1733
aS'sumatriptan_succinate'
p1734
aS'almotriptan_malate'
p1735
aS'rizatriptan_benzoate'
p1736
aS'zolmitriptan'
p1737
aS'frovatriptan_succinate'
p1738
atp1739
Rp1740
sS'Gonadotropins'
p1741
g2
((lp1742
S'chorionic_gonadotropin_alfa__recombinant'
p1743
aS'chorionic_gonadotropin'
p1744
aS'follicle_stimulating_hormone_luteinizing_hor'
p1745
aS'follitropin_beta'
p1746
atp1747
Rp1748
sS'Muscle Relax, Skeletal Central'
p1749
g2
((lp1750
S'carisoprodol'
p1751
aS'tizanidine_hydrochloride'
p1752
aS'cyclobenzaprine_hydrochloride'
p1753
aS'metaxalone'
p1754
aS'methocarbamol'
p1755
aS'chlorzoxazone'
p1756
aS'baclofen'
p1757
atp1758
Rp1759
sS'Antidiabetic Agents, Misc'
p1760
g2
((lp1761
S'sitagliptin_phosphate'
p1762
aS'pioglitazone_hydrochloride'
p1763
aS'metformin_hydrochloride_pioglitazone_hydroch'
p1764
aS'metformin_hydrochloride_sitagliptin_phosphat'
p1765
aS'metformin_hydrochloride_rosiglitazone_maleat'
p1766
aS'glucagon_hydrochloride'
p1767
aS'rosiglitazone_maleate'
p1768
aS'liraglutide'
p1769
aS'metformin_hydrochloride'
p1770
aS'exenatide'
p1771
atp1772
Rp1773
sS'Diuretics, Loop Diuretics'
p1774
g2
((lp1775
S'furosemide'
p1776
aS'bumetanide'
p1777
aS'torsemide'
p1778
atp1779
Rp1780
sS'Antineoplastic Agents'
p1781
g2
((lp1782
S'anastrozole'
p1783
aS'letrozole'
p1784
aS'tamoxifen_citrate'
p1785
aS'megestrol_acetate'
p1786
aS'tretinoin'
p1787
aS'methotrexate'
p1788
aS'leuprolide_acetate'
p1789
aS'methotrexate_sodium'
p1790
aS'fluorouracil'
p1791
atp1792
Rp1793
sS'Eyewash/Eyestrm/Lubr/Tear'
p1794
g2
((lp1795
S'cyclosporine'
p1796
ag1489
atp1797
Rp1798
sS'Antiinf S/MM,Antifungal & Comb'
p1799
g2
((lp1800
S'terconazole'
p1801
aS'betamethasone_dipropionate_clotrimazole'
p1802
aS'clotrimazole'
p1803
aS'oxiconazole_nitrate'
p1804
aS'butoconazole_nitrate'
p1805
aS'nystatin'
p1806
aS'naftifine_hydrochloride'
p1807
aS'griseofulvin__microcrystalline'
p1808
aS'ketoconazole'
p1809
aS'fluconazole'
p1810
ag1373
aS'itraconazole'
p1811
aS'terbinafine_hydrochloride'
p1812
aS'ciclopirox'
p1813
aS'econazole_nitrate'
p1814
atp1815
Rp1816
sS'Estrogens & Comb'
p1817
g2
((lp1818
S'ethinyl_estradiol_etonogestrel'
p1819
ag1502
aS'estradiol_norethindrone_acetate'
p1820
aS'ethinyl_estradiol_norgestimate'
p1821
aS'conjugated_estrogens_medroxyprogesterone_ace'
p1822
aS'esterified_estrogens_methyltestosterone'
p1823
ag1494
aS'conjugated_estrogens'
p1824
aS'raloxifene_hydrochloride'
p1825
aS'conjugated_estrogens_synthetic_a'
p1826
atp1827
Rp1828
sS'Antiinf S/MM, Antiinf Loc Misc'
p1829
g2
((lp1830
g1527
aS'benzoyl_peroxide'
p1831
aS'silver_sulfadiazine'
p1832
ag1525
ag1692
aS'metronidazole'
p1833
aS'adapalene_benzoyl_peroxide'
p1834
aS'azelaic_acid'
p1835
atp1836
Rp1837
sS'Cell Stim/Proliferant S/MM'
p1838
g2
((lp1839
S'adapalene'
p1840
aS'tazarotene'
p1841
ag1787
atp1842
Rp1843
sS'Vasodilating Agents'
p1844
g2
((lp1845
S'isosorbide_mononitrate'
p1846
ag1485
atp1847
Rp1848
sS'Contraceptive, Oral Comb'
p1849
g2
((lp1850
S'ethinyl_estradiol_norethindrone'
p1851
aS'ethinyl_estradiol_levonorgestrel'
p1852
aS'ethinyl_estradiol_ferrous_fum_norethindrone_'
p1853
aS'desogestrel_ethinyl_estradiol'
p1854
aS'ethinyl_estradiol_norethindrone;ferrous_fuma'
p1855
aS'desogestrel_ethinyl_estradiol;ethinyl_estrad'
p1856
ag1821
aS'drospirenone_ethinyl_estradiol'
p1857
aS'ethinyl_estradiol;ethinyl_estradiol_levonorg'
p1858
aS'ethinyl_estradiol_norethindrone_ace;ferrous_'
p1859
aS'ethinyl_estradiol_norethindrone_acetate'
p1860
aS'estrogen_progestin_folate_combination'
p1861
aS'ethinyl_estradiol_norelgestromin'
p1862
aS'levonorgestrel'
p1863
aS'ethinyl_estradiol_norgestrel'
p1864
aS'ethinyl_estradiol_ethynodiol_diacetate'
p1865
atp1866
Rp1867
sS'Pharmaceutical Aids/Adjuv'
p1868
g2
((lp1869
S'polyethylene_glycol_3350'
p1870
ag1391
atp1871
Rp1872
sS'Antitussives/Cold Comb'
p1873
g2
((lp1874
S'codeine_phos_phenyleph_hcl_promethazine_hcl'
p1875
aS'cpm_dm_hydrobrom_phenyleph_hcl'
p1876
aS'bpm_pse_hcl'
p1877
aS'benzonatate'
p1878
aS'dm_hydrobrom_gg_phenyleph_hcl'
p1879
aS'hydrocod_bit_phenyleph_hcl_pyril_mal'
p1880
aS'cpm_hydrocod_bit_phenyleph_hcl'
p1881
aS'dm_hydrobrom_promethazine_hcl'
p1882
aS'cough_cold_combination'
p1883
aS'carbetapentane_tannate_chlorpheniramine_tann'
p1884
aS'fexofenadine_hydrochloride'
p1885
aS'cpm_dm_hydrobrom_pse_hcl'
p1886
aS'dm_hydrobrom_gg_pse_hcl'
p1887
aS'bpm_dm_hydrobrom_pse_hcl'
p1888
aS'homatropine_methylbromide_hydrocodone_bitart'
p1889
aS'guaifenesin'
p1890
aS'cpm_methscopolamine_nitrate_pse_hcl'
p1891
aS'codeine_phos_gg_pse_hcl'
p1892
aS'guaifenesin_hydrocodone_bitartrate'
p1893
aS'cpm_methscopolamine_nitrate_phenyleph_hcl'
p1894
aS'desloratadine_pseudoephedrine_sulfate'
p1895
aS'phenyleph_hcl_promethazine_hcl'
p1896
aS'dextromethorphan_hydrobromide_guaifenesin'
p1897
aS'levocetirizine_dihydrochloride'
p1898
aS'cetirizine_hcl_pse_hcl'
p1899
aS'codeine_phosphate_promethazine_hydrochloride'
p1900
aS'loratadine'
p1901
aS'cetirizine_hydrochloride'
p1902
aS'cpm_hydrocod_bit_pse_hcl'
p1903
aS'diphenhydramine_hydrochloride'
p1904
aS'hydrocodone_bitartrate_potassium_guaiacolsul'
p1905
aS'chlorpheniramine_polistirex_hydrocodone_poli'
p1906
aS'gg_hydrocod_bit_phenyleph_hcl'
p1907
aS'guaifenesin_pseudoephedrine_hydrochloride'
p1908
aS'carbetapentane_tan_phenyleph_tan_pyril_tan'
p1909
aS'desloratadine'
p1910
aS'brompheniramine_maleate'
p1911
aS'cpm_phenyleph_hcl'
p1912
aS'cyproheptadine_hydrochloride'
p1913
aS'promethazine_hydrochloride'
p1914
atp1915
Rp1916
sS'Diuretics, Potassium-Sparing'
p1917
g2
((lp1918
S'spironolactone'
p1919
aS'hydrochlorothiazide_triamterene'
p1920
aS'hydrochlorothiazide_spironolactone'
p1921
atp1922
Rp1923
sS'Dental Agents'
p1924
g2
((lp1925
S'doxepin_hydrochloride'
p1926
ag1904
aS'lidocaine_prilocaine'
p1927
aS'lidocaine'
p1928
ag1423
ag1621
ag1365
atp1929
Rp1930
sS'Multivit Prep, Multivit Plain'
p1931
g2
((lp1932
S'niacin'
p1933
ag1251
aS'prenatal_vitamins'
p1934
aS'vitamin_b_complex__iron__and_vitamin_c'
p1935
aS'multivitamin__minerals__and_iron'
p1936
aS'cyanocobalamin_folic_acid_pyridoxine'
p1937
ag1484
aS'multivitamin_and_iron'
p1938
aS'cyanocobalamin'
p1939
aS'theophylline'
p1940
aS'folic_acid'
p1941
ag1551
atp1942
Rp1943
sS'S/MM Misc, Astringents'
p1944
g2
((lp1945
S'aluminum_chloride'
p1946
atp1947
Rp1948
sS'Anxiolytic/Sedative/Hypnot'
p1949
g2
((lp1950
S'eszopiclone'
p1951
ag1926
aS'hydroxyzine_pamoate'
p1952
aS'buspirone_hydrochloride'
p1953
aS'ramelteon'
p1954
aS'zaleplon'
p1955
aS'zolpidem_tartrate'
p1956
aS'hydroxyzine_hydrochloride'
p1957
atp1958
Rp1959
sS'Cath&Lax, Laxatives/Enemas'
p1960
g2
((lp1961
S'k_cl_na_bicarb_na_cl_na_sulf_peg'
p1962
aS'lubiprostone'
p1963
ag1391
aS'k_cl_na_bicarb_na_cl_polyethylene_glycol_335'
p1964
atp1965
Rp1966
sS'Cholelitholytic Agents'
p1967
g2
((lp1968
S'ursodiol'
p1969
atp1970
Rp1971
sS'ASH, Benzodiazepines'
p1972
g2
((lp1973
S'diazepam'
p1974
aS'triazolam'
p1975
aS'clorazepate_dipotassium'
p1976
aS'alprazolam'
p1977
aS'temazepam'
p1978
aS'lorazepam'
p1979
atp1980
Rp1981
sS'Analg/Antipyr,Nonstr/Antiinflm'
p1982
g2
((lp1983
g1333
aS'sulindac'
p1984
aS'ibuprofen'
p1985
aS'diclofenac_sodium_misoprostol'
p1986
ag1337
aS'rofecoxib'
p1987
aS'oxaprozin'
p1988
aS'valdecoxib'
p1989
aS'meloxicam'
p1990
aS'naproxen'
p1991
aS'diclofenac_potassium'
p1992
ag1347
aS'piroxicam'
p1993
aS'nabumetone'
p1994
aS'etodolac'
p1995
aS'mefenamic_acid'
p1996
aS'flurbiprofen'
p1997
aS'celecoxib'
p1998
aS'naproxen_sodium'
p1999
aS'naproxen_sodium_sumatriptan_succinate'
p2000
aS'ketoprofen'
p2001
aS'indomethacin'
p2002
atp2003
Rp2004
sS'Autonomic, Nicotine Preps'
p2005
g2
((lp2006
S'varenicline'
p2007
aS'nicotine'
p2008
atp2009
Rp2010
sS'Psychother, Antidepressants'
p2011
g2
((lp2012
S'vilazodone_hydrochloride'
p2013
aS'imipramine_hydrochloride'
p2014
ag1926
aS'nortriptyline_hydrochloride'
p2015
aS'citalopram_hydrobromide'
p2016
aS'escitalopram_oxalate'
p2017
aS'paroxetine_hydrochloride'
p2018
aS'amitriptyline_hydrochloride'
p2019
aS'duloxetine_hydrochloride'
p2020
aS'mirtazapine'
p2021
aS'trazodone_hydrochloride'
p2022
aS'venlafaxine_hydrochloride'
p2023
aS'sertraline_hydrochloride'
p2024
aS'fluoxetine_hydrochloride'
p2025
aS'bupropion_hydrochloride'
p2026
aS'desvenlafaxine_succinate'
p2027
atp2028
Rp2029
sS'Antiinf S/MM,Antivirals & Comb'
p2030
g2
((lp2031
S'penciclovir'
p2032
atp2033
Rp2034
sS'Anti-Infectives, Misc'
p2035
g2
((lp2036
g1833
aS'tinidazole'
p2037
aS'atovaquone_proguanil_hydrochloride'
p2038
aS'trimethoprim'
p2039
atp2040
Rp2041
sS'Cardiac, Beta Blockers'
p2042
g2
((lp2043
g1614
aS'bisoprolol_fumarate_hydrochlorothiazide'
p2044
aS'metoprolol_tartrate'
p2045
aS'atenolol_chlorthalidone'
p2046
aS'sotalol_hydrochloride'
p2047
aS'bisoprolol_fumarate'
p2048
aS'atenolol'
p2049
aS'carvedilol'
p2050
aS'propranolol_hydrochloride'
p2051
aS'nebivolol_hydrochloride'
p2052
aS'metoprolol_succinate'
p2053
aS'nadolol'
p2054
atp2055
Rp2056
sS'Parasympathomimetic'
p2057
g2
((lp2058
S'donepezil_hydrochloride'
p2059
atp2060
Rp2061
sS'Antimanic Agents'
p2062
g2
((lp2063
S'lithium_carbonate'
p2064
atp2065
Rp2066
sS'Ovulation Stimulants'
p2067
g2
((lp2068
S'clomiphene_citrate'
p2069
atp2070
Rp2071
sS'Muscle Rel,Smooth-Genitour'
p2072
g2
((lp2073
S'oxybutynin_chloride'
p2074
aS'solifenacin_succinate'
p2075
aS'tolterodine_tartrate'
p2076
aS'darifenacin_hydrobromide'
p2077
atp2078
Rp2079
sS'Anthelmintics'
p2080
g2
((lp2081
S'mebendazole'
p2082
atp2083
Rp2084
sS'Cath&Lax, Laxatives, Saline'
p2085
g2
((lp2086
S'magnesium_sulfate_potassium_sulfate_sodium_s'
p2087
ag1727
atp2088
Rp2089
sS'Antichol/Antimuscarin/Antispas'
p2090
g2
((lp2091
S'chlordiazepoxide_hydrochloride_clidinium_bro'
p2092
aS'glycopyrrolate'
p2093
aS'atropine_sulfate'
p2094
aS'dicyclomine_hydrochloride'
p2095
aS'scopolamine'
p2096
ag1386
aS'hyoscyamine_sulfate'
p2097
atp2098
Rp2099
sS'Ammonia Detoxicants'
p2100
g2
((lp2101
S'lactulose'
p2102
atp2103
Rp2104
sS'Sulfones'
p2105
g2
((lp2106
S'dapsone'
p2107
atp2108
Rp2109
sS'Diabetes Mell/Diab Supply'
p2110
g2
((lp2111
S'lancet_device'
p2112
aS'needle'
p2113
aS'glucose__blood_test'
p2114
aS'insulin_syringe_needle'
p2115
aS'spacer__inhalation'
p2116
ag1423
aS'glucose_meter'
p2117
aS'lancet'
p2118
aS'glucose_meter_test_control_strips'
p2119
atp2120
Rp2121
sS'Antimalarial Agents'
p2122
g2
((lp2123
S'chloroquine_phosphate'
p2124
ag1424
aS'hydroxychloroquine_sulfate'
p2125
aS'mefloquine_hydrochloride'
p2126
atp2127
Rp2128
sS'Antidiarrhea Agents'
p2129
g2
((lp2130
S'loperamide_hydrochloride'
p2131
aS'atropine_sulfate_diphenoxylate_hydrochloride'
p2132
atp2133
Rp2134
sS'Anticonvulsants, Misc'
p2135
g2
((lp2136
S'oxcarbazepine'
p2137
aS'carbamazepine'
p2138
aS'levetiracetam'
p2139
aS'zonisamide'
p2140
aS'topiramate'
p2141
aS'divalproex_sodium'
p2142
aS'lamotrigine'
p2143
aS'gabapentin'
p2144
atp2145
Rp2146
sS'Urinary Anti-Infectives'
p2147
g2
((lp2148
S'nitrofurantoin_monohydrate_nitrofurantoin__m'
p2149
aS'nitrofurantoin__macrocrystals'
p2150
ag1491
atp2151
Rp2152
sS'Antiallergic Agents'
p2153
g2
((lp2154
S'epinastine_hydrochloride'
p2155
ag1894
aS'azelastine_hydrochloride'
p2156
atp2157
Rp2158
sS'Immunosuppressants'
p2159
g2
((lp2160
S'etanercept'
p2161
aS'azathioprine'
p2162
aS'adalimumab'
p2163
ag1796
ag1492
atp2164
Rp2165
sS'Anticholinergic'
p2166
g2
((lp2167
g1891
aS'ipratropium_bromide'
p2168
aS'tiotropium_bromide'
p2169
atp2170
Rp2171
sS'Thy/Antithy, Thyroid/Hormones'
p2172
g2
((lp2173
S'thyroid'
p2174
aS'liothyronine_sodium'
p2175
aS'levothyroxine_sodium'
p2176
atp2177
Rp2178
sS'Sympathomimetic Agents'
p2179
g2
((lp2180
S'albuterol'
p2181
aS'levalbuterol_tartrate'
p2182
aS'albuterol_sulfate_ipratropium_bromide'
p2183
aS'albuterol_sulfate'
p2184
aS'pirbuterol_acetate'
p2185
aS'levalbuterol_hydrochloride'
p2186
aS'epinephrine'
p2187
aS'guaifenesin_phenylephrine_hydrochloride'
p2188
aS'chlorpheniramine_tannate_phenylephrine_tanna'
p2189
aS'cpm_pse_hcl'
p2190
aS'salmeterol_xinafoate'
p2191
aS'apap_dichloralphenazone_isometheptene_mucate'
p2192
aS'fexofenadine_hcl_pse_hcl'
p2193
atp2194
Rp2195
stp2196
.