(dp0
VCardiac, Cardiac Glycosides:THR
p1
c__builtin__
set
p2
((lp3
S'digoxin'
p4
atp5
Rp6
sVDiuretics, Potassium-Sparing:THR
p7
g2
((lp8
S'spironolactone'
p9
aS'hydrochlorothiazide_triamterene'
p10
aS'hydrochlorothiazide_spironolactone'
p11
atp12
Rp13
sS'Dihydropyridine Calcium Channel Blocker:EPC'
p14
g2
((lp15
S'nifedipine'
p16
aS'amlodipine_besylate_valsartan'
p17
aS'amlodipine_besylate'
p18
aS'amlodipine_besylate_olmesartan_medoxomil'
p19
aS'amlodipine_besylate_atorvastatin_calcium'
p20
aS'amlodipine_besylate_benazepril_hydrochloride'
p21
aS'felodipine'
p22
atp23
Rp24
sS'Dietary Cholesterol Absorption Inhibitor:EPC'
p25
g2
((lp26
S'ezetimibe_simvastatin'
p27
aS'ezetimibe'
p28
atp29
Rp30
sS'Coag/Anticoag, Anticoagulants:THR'
p31
g2
((lp32
S'rivaroxaban'
p33
aS'warfarin_sodium'
p34
aS'enoxaparin_sodium'
p35
atp36
Rp37
sS'Thiazide Diuretic:EPC'
p38
g2
((lp39
S'hydrochlorothiazide_olmesartan_medoxomil'
p40
aS'benazepril_hydrochloride_hydrochlorothiazide'
p41
aS'hydrochlorothiazide_triamterene'
p42
aS'bisoprolol_fumarate_hydrochlorothiazide'
p43
aS'hydrochlorothiazide_valsartan'
p44
aS'hydrochlorothiazide_spironolactone'
p45
aS'hydrochlorothiazide_telmisartan'
p46
aS'hydrochlorothiazide_losartan_potassium'
p47
aS'hydrochlorothiazide_irbesartan'
p48
aS'hydrochlorothiazide'
p49
aS'hydrochlorothiazide_lisinopril'
p50
atp51
Rp52
sS'HeartFailure:DIS'
p53
g2
((lp54
S'fosinopril_sodium'
p55
ag40
aS'timolol_maleate'
p56
aS'indapamide'
p57
aS'telmisartan'
p58
ag43
ag44
aS'ramipril'
p59
ag46
aS'valsartan'
p60
ag47
aS'nitroglycerin'
p61
aS'irbesartan'
p62
aS'propranolol_hydrochloride'
p63
ag17
aS'captopril'
p64
aS'torsemide'
p65
aS'lisinopril'
p66
aS'isosorbide_mononitrate'
p67
ag19
aS'benazepril_hydrochloride'
p68
ag10
aS'losartan_potassium'
p69
aS'atenolol'
p70
aS'chlorthalidone'
p71
aS'bumetanide'
p72
aS'furosemide'
p73
aS'metoprolol_tartrate'
p74
aS'atenolol_chlorthalidone'
p75
ag11
aS'olmesartan_medoxomil'
p76
aS'bisoprolol_fumarate'
p77
ag48
aS'potassium_chloride'
p78
aS'benazepril_hydrochloride_hydrochlorothiazide'
p79
aS'carvedilol'
p80
aS'hydrochlorothiazide_lisinopril'
p81
aS'metolazone'
p82
aS'nadolol'
p83
ag9
aS'candesartan_cilexetil'
p84
aS'hydrochlorothiazide'
p85
aS'metoprolol_succinate'
p86
aS'quinapril_hydrochloride'
p87
aS'enalapril_maleate'
p88
atp89
Rp90
sS'Vasodilating Agents:THR'
p91
g2
((lp92
g67
ag61
atp93
Rp94
sS'Antiarrhythmic:EPC'
p95
g2
((lp96
S'sotalol_hydrochloride'
p97
aS'amiodarone_hydrochloride'
p98
atp99
Rp100
sVRepl Preps, Potassium Supp:THR
p101
g2
((lp102
g78
atp103
Rp104
sS'Hypertension:DIS'
p105
g2
((lp106
g55
aS'nifedipine'
p107
aS'guanfacine_hydrochloride'
p108
aS'hydrochlorothiazide_olmesartan_medoxomil'
p109
aS'timolol_maleate'
p110
aS'telmisartan'
p111
aS'bisoprolol_fumarate_hydrochlorothiazide'
p112
aS'hydrochlorothiazide_valsartan'
p113
ag59
aS'hydrochlorothiazide_telmisartan'
p114
aS'clonidine'
p115
aS'valsartan'
p116
aS'hydrochlorothiazide_losartan_potassium'
p117
aS'irbesartan'
p118
aS'propranolol_hydrochloride'
p119
aS'amlodipine_besylate_valsartan'
p120
ag64
ag65
aS'doxazosin_mesylate'
p121
ag66
aS'amlodipine_besylate_olmesartan_medoxomil'
p122
ag68
aS'amlodipine_besylate_atorvastatin_calcium'
p123
ag57
ag10
aS'losartan_potassium'
p124
aS'felodipine'
p125
aS'atenolol'
p126
aS'amlodipine_besylate_benazepril_hydrochloride'
p127
aS'nebivolol_hydrochloride'
p128
aS'hydralazine_hydrochloride'
p129
ag72
aS'clonidine_hydrochloride'
p130
ag73
aS'metoprolol_tartrate'
p131
aS'atenolol_chlorthalidone'
p132
ag11
aS'olmesartan_medoxomil'
p133
aS'bisoprolol_fumarate'
p134
aS'hydrochlorothiazide_irbesartan'
p135
ag78
ag79
aS'carvedilol'
p136
ag71
ag81
ag82
aS'amlodipine_besylate'
p137
aS'verapamil_hydrochloride'
p138
aS'sotalol_hydrochloride'
p139
ag87
ag9
aS'diltiazem_hydrochloride'
p140
aS'methyldopa'
p141
aS'candesartan_cilexetil'
p142
ag85
aS'metoprolol_succinate'
p143
aS'nadolol'
p144
ag88
atp145
Rp146
sS'beta-Adrenergic Blocker:EPC'
p147
g2
((lp148
g56
ag74
ag75
ag43
ag77
ag70
ag80
ag63
ag86
ag83
atp149
Rp150
sS'Bile Acid Sequestrant:EPC'
p151
g2
((lp152
S'colesevelam_hydrochloride'
p153
aS'cholestyramine'
p154
atp155
Rp156
sS'Thiazide-like Diuretic:EPC'
p157
g2
((lp158
S'indapamide'
p159
aS'chlorthalidone'
p160
aS'metolazone'
p161
ag75
atp162
Rp163
sS'Antiplatelet Agents:THR'
p164
g2
((lp165
S'cilostazol'
p166
aS'aspirin_dipyridamole'
p167
aS'clopidogrel_hydrogen_sulfate'
p168
atp169
Rp170
sS'Arhythmia:DIS'
p171
g2
((lp172
g166
ag167
ag168
ag34
ag35
ag4
ag33
aS'amiodarone_hydrochloride'
p173
atp174
Rp175
sS'Angiotensin 2 Receptor Blocker:EPC'
p176
g2
((lp177
g40
ag17
ag19
ag58
ag48
ag44
ag76
ag60
ag47
ag84
ag69
ag62
ag46
atp178
Rp179
sS'Aldosterone Antagonist:EPC'
p180
g2
((lp181
S'spironolactone'
p182
ag45
atp183
Rp184
sVCardiac, Calcium Channel:THR
p185
g2
((lp186
g107
ag120
ag137
ag122
ag127
ag125
ag140
ag138
atp187
Rp188
sS'Loop Diuretic:EPC'
p189
g2
((lp190
S'furosemide'
p191
aS'bumetanide'
p192
aS'torsemide'
p193
atp194
Rp195
sS'alpha-Adrenergic Blocker:EPC'
p196
g2
((lp197
S'doxazosin_mesylate'
p198
ag80
atp199
Rp200
sS'Peroxisome Proliferator Receptor alpha Agonist:EPC'
p201
g2
((lp202
S'fenofibrate'
p203
aS'fenofibric_acid'
p204
aS'gemfibrozil'
p205
aS'fenofibrate__micronized'
p206
atp207
Rp208
sS'Cardiac, Antiarrhythmic Agents:THR'
p209
g2
((lp210
g173
atp211
Rp212
sS'Antihyperlipidemic Drugs:THR'
p213
g2
((lp214
S'atorvastatin_calcium'
p215
aS'fenofibrate__micronized'
p216
aS'lovastatin'
p217
aS'omega-3-acid_ethyl_esters'
p218
aS'cholestyramine'
p219
aS'ezetimibe_simvastatin'
p220
aS'fenofibrate'
p221
aS'ezetimibe'
p222
aS'colesevelam_hydrochloride'
p223
aS'fluvastatin_sodium'
p224
aS'fenofibric_acid'
p225
aS'rosuvastatin_calcium'
p226
aS'pravastatin_sodium'
p227
aS'simvastatin'
p228
aS'gemfibrozil'
p229
atp230
Rp231
sS'Mood Stabilizer:EPC'
p232
g2
((lp233
g160
aS'hydralazine_hydrochloride'
p234
atp235
Rp236
sVDiuretics, Loop Diuretics:THR
p237
g2
((lp238
g73
ag72
ag65
atp239
Rp240
sS'Nitrate Vasodilator:EPC'
p241
g2
((lp242
S'isosorbide_mononitrate'
p243
aS'nitroglycerin'
p244
atp245
Rp246
sS'Anti-epileptic Agent:EPC'
p247
g2
((lp248
S'diltiazem_hydrochloride'
p249
ag160
ag234
atp250
Rp251
sVCardiac Drugs:THR
p252
g2
((lp253
g109
ag142
ag111
ag113
ag133
ag116
ag117
ag123
ag135
ag124
ag118
ag114
atp254
Rp255
sS'Calcium Channel Blocker:EPC'
p256
g2
((lp257
g16
ag17
ag18
ag19
ag20
ag21
ag22
ag249
aS'verapamil_hydrochloride'
p258
atp259
Rp260
sS'Central alpha-2 Adrenergic Agonist:EPC'
p261
g2
((lp262
S'clonidine'
p263
aS'clonidine_hydrochloride'
p264
aS'methyldopa'
p265
aS'guanfacine_hydrochloride'
p266
atp267
Rp268
sS'Angiotensin Converting Enzyme Inhibitor:EPC'
p269
g2
((lp270
S'fosinopril_sodium'
p271
ag50
ag41
aS'benazepril_hydrochloride'
p272
aS'ramipril'
p273
ag21
aS'enalapril_maleate'
p274
aS'captopril'
p275
aS'quinapril_hydrochloride'
p276
aS'lisinopril'
p277
atp278
Rp279
sS'Ischemia:DIS'
p280
g2
((lp281
g215
ag223
ag61
ag227
ag67
ag218
ag219
ag34
ag35
ag228
ag229
ag166
ag167
ag168
ag222
ag217
ag226
ag216
ag224
ag220
ag221
ag225
ag33
atp282
Rp283
sVCardiac, Beta Blockers:THR
p284
g2
((lp285
g110
ag131
ag126
ag112
ag144
ag134
ag132
ag136
ag119
ag128
ag143
ag139
atp286
Rp287
sVDiuretics, Thiazides & Related:THR
p288
g2
((lp289
g57
ag71
ag82
ag85
atp290
Rp291
sVCardiac, ACE Inhibitors:THR
p292
g2
((lp293
g55
ag88
ag79
ag68
ag59
ag81
ag64
ag87
ag66
atp294
Rp295
sVHypotensive Agents:THR
p296
g2
((lp297
g115
ag130
ag141
ag108
ag129
ag121
atp298
Rp299
sS'HMG-CoA Reductase Inhibitor:EPC'
p300
g2
((lp301
S'atorvastatin_calcium'
p302
aS'lovastatin'
p303
ag27
aS'fluvastatin_sodium'
p304
ag20
aS'rosuvastatin_calcium'
p305
aS'pravastatin_sodium'
p306
aS'simvastatin'
p307
atp308
Rp309
s.