(dp0
S'fluticasone_furoate'
p1
c__builtin__
set
p2
((lp3
S'Adrenals & Comb'
p4
atp5
Rp6
sS'neomycin_sulfate'
p7
g2
((lp8
S'Antiinfect, Antibiotics EENT'
p9
atp10
Rp11
sS'betamethasone_dipropionate_calcipotriene'
p12
g2
((lp13
g4
atp14
Rp15
sS'omalizumab'
p16
g2
((lp17
S'Immunosuppressants'
p18
atp19
Rp20
sS'oxybutynin'
p21
g2
((lp22
S'Muscle Rel,Smooth-Genitour'
p23
atp24
Rp25
sS'indapamide'
p26
g2
((lp27
S'Diuretics, Thiazides & Related'
p28
atp29
Rp30
sS'telmisartan'
p31
g2
((lp32
S'Cardiac Drugs'
p33
atp34
Rp35
sS'halcinonide'
p36
g2
((lp37
g4
atp38
Rp39
sS'montelukast_sodium'
p40
g2
((lp41
S'Leukotriene Modifiers'
p42
atp43
Rp44
sS'chlordiazepoxide_hydrochloride'
p45
g2
((lp46
S'ASH, Benzodiazepines'
p47
atp48
Rp49
sS'carbetapentane_tan_phenyleph_tan_pyril_tan'
p50
g2
((lp51
S'Antitussives/Cold Comb'
p52
atp53
Rp54
sS'lubiprostone'
p55
g2
((lp56
S'Cath&Lax, Laxatives/Enemas'
p57
atp58
Rp59
sS'nitroglycerin'
p60
g2
((lp61
S'Misc Therapeutic Agents'
p62
aS'Vasodilating Agents'
p63
atp64
Rp65
sS'trazodone_hydrochloride'
p66
g2
((lp67
S'Psychother, Antidepressants'
p68
atp69
Rp70
sS'thyroid_porcine'
p71
g2
((lp72
tp73
Rp74
sS'cromolyn_sodium'
p75
g2
((lp76
S'Eye/Ear/Nose/Throat Misc'
p77
atp78
Rp79
sS'dexamethasone_neomycin_sulfate_polymyxin_b_s'
p80
g2
((lp81
S'Antiinfect, Antiinflam EENT'
p82
atp83
Rp84
sS'sildenafil_citrate'
p85
g2
((lp86
g62
atp87
Rp88
sS'niacin'
p89
g2
((lp90
S'Antihyperlipidemic Drugs'
p91
aS'Multivit Prep, Multivit Plain'
p92
atp93
Rp94
sS'varenicline'
p95
g2
((lp96
tp97
Rp98
sS'bpm_dm_hydrobrom_gg_phenyleph_hcl'
p99
g2
((lp100
g52
atp101
Rp102
sS'fe_folic_acid_pyridoxine_hcl_vit_b12_vit_c_z'
p103
g2
((lp104
g92
atp105
Rp106
sS'febuxostat'
p107
g2
((lp108
S'Antigout Agents'
p109
atp110
Rp111
sS'desmopressin_acetate'
p112
g2
((lp113
tp114
Rp115
sS'clorazepate_dipotassium'
p116
g2
((lp117
g47
atp118
Rp119
sS'prednisolone_acetate_sulfacetamide_sodium'
p120
g2
((lp121
g82
ag4
atp122
Rp123
sS'sevelamer_hydrochloride'
p124
g2
((lp125
S'Phosphorus Removing Agents'
p126
atp127
Rp128
sS'glipizide_metformin_hydrochloride'
p129
g2
((lp130
S'Antidiabetic Agents, Misc'
p131
atp132
Rp133
sS'aliskiren_hydrochlorothiazide'
p134
g2
((lp135
g33
atp136
Rp137
sS'betaxolol_hydrochloride'
p138
g2
((lp139
S'Cardiac, Beta Blockers'
p140
ag77
atp141
Rp142
sS'bacitracin_zinc_polymyxin_b_sulfate'
p143
g2
((lp144
g9
atp145
Rp146
sS'bupropion_hydrochloride'
p147
g2
((lp148
g68
atp149
Rp150
sS'salicylic_acid'
p151
g2
((lp152
S'Keratolytic Agents S/MM'
p153
aS'Antiinf S/MM, Antiinf Loc Misc'
p154
atp155
Rp156
sS'sulfacetamide_sodium_sulfur'
p157
g2
((lp158
g9
atp159
Rp160
sS'bisacodyl'
p161
g2
((lp162
g57
atp163
Rp164
sS'bpm_dm_hydrobrom_phenyleph_hcl'
p165
g2
((lp166
g52
atp167
Rp168
sS'carbetapentane_cit_pse_hcl'
p169
g2
((lp170
g52
atp171
Rp172
sS'desipramine_hydrochloride'
p173
g2
((lp174
g68
atp175
Rp176
sS'urea'
p177
g2
((lp178
g62
ag153
aS'Emoll/Moist/Demul/Protect S/MM'
p179
atp180
Rp181
sS'insulin_aspart_insulin_aspart_protamine'
p182
g2
((lp183
S'Antidiabetic Agents, Insulins'
p184
atp185
Rp186
sS'tamoxifen_citrate'
p187
g2
((lp188
S'Antineoplastic Agents'
p189
atp190
Rp191
sS'benzocaine_trimethobenzamide_hydrochloride'
p192
g2
((lp193
S'Antiemetics'
p194
atp195
Rp196
sS'glimepiride'
p197
g2
((lp198
S'Antidiabetic Ag, Sulfonylureas'
p199
atp200
Rp201
sS'phenytoin_sodium__extended'
p202
g2
((lp203
tp204
Rp205
sS'perindopril_erbumine'
p206
g2
((lp207
S'Cardiac, ACE Inhibitors'
p208
atp209
Rp210
sS'retapamulin'
p211
g2
((lp212
g9
atp213
Rp214
sS'bpm_hydrocod_bit_phenyleph_hcl'
p215
g2
((lp216
g52
atp217
Rp218
sS'influenza_virus_vaccine__live'
p219
g2
((lp220
S'Vaccines'
p221
atp222
Rp223
sS'rifampin'
p224
g2
((lp225
S'Antituberculosis Agents'
p226
atp227
Rp228
sS'naproxen_sodium'
p229
g2
((lp230
S'Analg/Antipyr,Nonstr/Antiinflm'
p231
atp232
Rp233
sS'trospium_chloride'
p234
g2
((lp235
g23
atp236
Rp237
sS'pse_hcl_triprolidine_hcl'
p238
g2
((lp239
g52
atp240
Rp241
sS'enalapril_maleate_hydrochlorothiazide'
p242
g2
((lp243
g208
atp244
Rp245
sS'gel__multi_ingredient'
p246
g2
((lp247
g62
aS'Dental Agents'
p248
atp249
Rp250
sS'copper_oxide_folic_acid_niacinamide_zinc_oxi'
p251
g2
((lp252
g92
atp253
Rp254
sS'citric_acid_sodium_citrate'
p255
g2
((lp256
tp257
Rp258
sS'quetiapine_fumarate'
p259
g2
((lp260
S'Psychother,Tranq/Antipsychotic'
p261
atp262
Rp263
sS'vitamin_b_complex__iron__and_vitamin_c'
p264
g2
((lp265
g92
atp266
Rp267
sS'lovastatin_niacin'
p268
g2
((lp269
g91
atp270
Rp271
sS'cyclosporine'
p272
g2
((lp273
g18
aS'Eyewash/Eyestrm/Lubr/Tear'
p274
atp275
Rp276
sS'gg_hydrocod_bit_phenyleph_hcl'
p277
g2
((lp278
g52
atp279
Rp280
sS'cyanocobalamin_folic_acid_pyridoxine'
p281
g2
((lp282
g92
atp283
Rp284
sS'progesterone'
p285
g2
((lp286
g62
atp287
Rp288
sS'methimazole'
p289
g2
((lp290
tp291
Rp292
sS'glucagon_hydrochloride'
p293
g2
((lp294
g131
atp295
Rp296
sS'chlorpromazine_hydrochloride'
p297
g2
((lp298
g261
atp299
Rp300
sS'prochlorperazine'
p301
g2
((lp302
g194
ag261
atp303
Rp304
sS'filgrastim'
p305
g2
((lp306
S'Hematopoietic Agents'
p307
atp308
Rp309
sS'dalteparin_sodium'
p310
g2
((lp311
S'Coag/Anticoag, Anticoagulants'
p312
atp313
Rp314
sS'phytonadione'
p315
g2
((lp316
tp317
Rp318
sS'galantamine_hydrobromide'
p319
g2
((lp320
S'Parasympathomimetic'
p321
atp322
Rp323
sS'flurazepam_hydrochloride'
p324
g2
((lp325
g47
atp326
Rp327
sS'quinapril_hydrochloride'
p328
g2
((lp329
g208
atp330
Rp331
sS'fenoprofen_calcium'
p332
g2
((lp333
g231
atp334
Rp335
sS'desloratadine_pseudoephedrine_sulfate'
p336
g2
((lp337
g52
atp338
Rp339
sS'nitrofurantoin'
p340
g2
((lp341
S'Urinary Anti-Infectives'
p342
atp343
Rp344
sS'chlordiazepoxide_hydrochloride_clidinium_bro'
p345
g2
((lp346
S'Antichol/Antimuscarin/Antispas'
p347
atp348
Rp349
sS'venlafaxine_hydrochloride'
p350
g2
((lp351
g68
atp352
Rp353
sS'pseudoephedrine_hydrochloride'
p354
g2
((lp355
g52
atp356
Rp357
sS'pioglitazone_hydrochloride'
p358
g2
((lp359
g131
atp360
Rp361
sS'silver_sulfadiazine'
p362
g2
((lp363
g154
atp364
Rp365
sS'atropine_sulfate'
p366
g2
((lp367
g347
atp368
Rp369
sS'metaproterenol_sulfate'
p370
g2
((lp371
g52
atp372
Rp373
sS'hydrocodone_bitartrate_phenylephrine_hydroch'
p374
g2
((lp375
g52
atp376
Rp377
sS'erlotinib_hydrochloride'
p378
g2
((lp379
g189
atp380
Rp381
sS'cetrorelix_acetate'
p382
g2
((lp383
S'Gonadotropins'
p384
atp385
Rp386
sS'homatropine_hydrobromide'
p387
g2
((lp388
g347
atp389
Rp390
sS'acetaminophen_hydrocodone_bitartrate'
p391
g2
((lp392
g52
atp393
Rp394
sS'cough_cold_combination'
p395
g2
((lp396
g52
atp397
Rp398
sS'papain_urea'
p399
g2
((lp400
S'Enzyme Prep, Topical S/MM'
p401
atp402
Rp403
sS'aspirin_carisoprodol'
p404
g2
((lp405
S'Muscle Relax, Skeletal Central'
p406
atp407
Rp408
sS'tinidazole'
p409
g2
((lp410
S'Anti-Infectives, Misc'
p411
atp412
Rp413
sS'carbinoxamine_mal_dm_hydrobrom_pse_hcl'
p414
g2
((lp415
g52
atp416
Rp417
sS'pramipexole_dihydrochloride'
p418
g2
((lp419
S'CNS Agents, Misc.'
p420
atp421
Rp422
sS'tdap_vaccine'
p423
g2
((lp424
tp425
Rp426
sS'penicillin_v_potassium'
p427
g2
((lp428
S'Antibiot, Penicillins'
p429
atp430
Rp431
sS'alprazolam'
p432
g2
((lp433
g47
atp434
Rp435
sS'duloxetine_hydrochloride'
p436
g2
((lp437
g68
atp438
Rp439
sS'multivitamin__minerals__and_nutriceuticals'
p440
g2
((lp441
g62
ag92
atp442
Rp443
sS'cefdinir'
p444
g2
((lp445
S'Antibiot, Cephalosporin & Rel.'
p446
atp447
Rp448
sS'dexamethasone_tobramycin'
p449
g2
((lp450
g82
atp451
Rp452
sS'ferrous_fumarate_folic_acid'
p453
g2
((lp454
g92
atp455
Rp456
sS'tobramycin_sulfate'
p457
g2
((lp458
g9
atp459
Rp460
sS'cpm_methscopolamine_nitrate_phenyleph_hcl'
p461
g2
((lp462
g52
aS'Antiallergic Agents'
p463
atp464
Rp465
sS'cpm_phenyleph_hcl_pyril_mal'
p466
g2
((lp467
g52
atp468
Rp469
sS'omega-3_fatty_acids;prenatal_vitamins'
p470
g2
((lp471
g92
atp472
Rp473
sS'levalbuterol_tartrate'
p474
g2
((lp475
g52
atp476
Rp477
sS'estriol__micronized'
p478
g2
((lp479
tp480
Rp481
sS'ascorbic_acid_cyanocobalamin_folic_acid_iron'
p482
g2
((lp483
g92
atp484
Rp485
sS'fluocinolone_acetonide'
p486
g2
((lp487
g4
atp488
Rp489
sS'cystine_inositol_methionine_sodium_propionat'
p490
g2
((lp491
g62
atp492
Rp493
sS'atropine_sulfate_diphenoxylate_hydrochloride'
p494
g2
((lp495
S'Antidiarrhea Agents'
p496
atp497
Rp498
sS'meclofenamate_sodium'
p499
g2
((lp500
g231
atp501
Rp502
sS'hydrocortisone_valerate'
p503
g2
((lp504
g4
atp505
Rp506
sS'sulconazole_nitrate'
p507
g2
((lp508
S'Antiinf S/MM,Antifungal & Comb'
p509
atp510
Rp511
sS'dm_tan_phenyleph_tan_pyril_tan'
p512
g2
((lp513
g52
atp514
Rp515
sS'topiramate'
p516
g2
((lp517
S'Anticonvulsants, Misc'
p518
atp519
Rp520
sS'nizatidine'
p521
g2
((lp522
S'Histamine (H2) Antagonist'
p523
atp524
Rp525
sS'benztropine_mesylate'
p526
g2
((lp527
tp528
Rp529
sS'dm_tan_dexchlorpheniramine_tan_pse_tan'
p530
g2
((lp531
g52
atp532
Rp533
sS'amoxicillin_clavulanate_potassium'
p534
g2
((lp535
g429
atp536
Rp537
sS'griseofulvin__microcrystalline'
p538
g2
((lp539
g509
atp540
Rp541
sS'amlodipine_besylate_hydrochlorothiazide_vals'
p542
g2
((lp543
S'Cardiac, Calcium Channel'
p544
atp545
Rp546
sS'mefloquine_hydrochloride'
p547
g2
((lp548
S'Antimalarial Agents'
p549
atp550
Rp551
sS'tramadol_hydrochloride'
p552
g2
((lp553
S'Analg/Antipyr, Salicylates'
p554
atp555
Rp556
sS'sinecatechins'
p557
g2
((lp558
g62
atp559
Rp560
sS'levalbuterol_hydrochloride'
p561
g2
((lp562
g52
atp563
Rp564
sS'erythromycin_ethylsuccinate'
p565
g2
((lp566
g9
atp567
Rp568
sS'sodium_oxybate'
p569
g2
((lp570
g420
atp571
Rp572
sS'guaifenesin_pseudoephedrine_hydrochloride'
p573
g2
((lp574
g52
atp575
Rp576
sS'fe_pentacarbonyl_folic_acid_vit_b12_vit_c'
p577
g2
((lp578
g92
atp579
Rp580
sS'temazepam'
p581
g2
((lp582
g47
atp583
Rp584
sS'ceftriaxone_sodium'
p585
g2
((lp586
g446
atp587
Rp588
sS'influenza_virus_vaccine__subvirion_'
p589
g2
((lp590
g221
atp591
Rp592
sS'hydrochlorothiazide_lisinopril'
p593
g2
((lp594
g208
atp595
Rp596
sS'dorzolamide_hydrochloride'
p597
g2
((lp598
g77
atp599
Rp600
sS'ivermectin'
p601
g2
((lp602
S'Anthelmintics'
p603
atp604
Rp605
sS'ethinyl_estradiol_levonorgestrel'
p606
g2
((lp607
S'Contraceptive, Oral Comb'
p608
atp609
Rp610
sS'testosterone_cypionate'
p611
g2
((lp612
S'Androgens & Comb'
p613
atp614
Rp615
sS'guanfacine_hydrochloride'
p616
g2
((lp617
S'Hypotensive Agents'
p618
atp619
Rp620
sS'disopyramide_phosphate'
p621
g2
((lp622
S'Cardiac, Antiarrhythmic Agents'
p623
atp624
Rp625
sS'oxymorphone_hydrochloride'
p626
g2
((lp627
g52
atp628
Rp629
sS'trimethoprim'
p630
g2
((lp631
g411
atp632
Rp633
sS'phentermine_hydrochloride'
p634
g2
((lp635
S'Stimulant, Amphetamine Type'
p636
atp637
Rp638
sS'cpm_tan_carbetapentane_tan_eph_tan_phenyleph'
p639
g2
((lp640
g52
atp641
Rp642
sS'cpm_methscopolamine_nitrate_pse_hcl'
p643
g2
((lp644
S'Anticholinergic'
p645
ag52
atp646
Rp647
sS'phenylephrine_hydrochloride_pyrilamine_malea'
p648
g2
((lp649
g52
atp650
Rp651
sS'trifluridine'
p652
g2
((lp653
tp654
Rp655
sS'cyclopentolate_hydrochloride'
p656
g2
((lp657
g347
atp658
Rp659
sS'exenatide'
p660
g2
((lp661
g131
atp662
Rp663
sS'isosorbide_mononitrate'
p664
g2
((lp665
g63
atp666
Rp667
sS'betamethasone_dipropionate'
p668
g2
((lp669
g4
atp670
Rp671
sS'estradiol_acetate'
p672
g2
((lp673
S'Estrogens & Comb'
p674
ag62
atp675
Rp676
sS'midodrine_hydrochloride'
p677
g2
((lp678
g52
atp679
Rp680
sS'levocabastine_hydrochloride'
p681
g2
((lp682
g77
atp683
Rp684
sS'na_phos__dibasic_na_phos__monobasic'
p685
g2
((lp686
tp687
Rp688
sS'crotamiton'
p689
g2
((lp690
S'Antiinf S/MM, Scabic/Pediculic'
p691
atp692
Rp693
sS'lactic_acid_vitamin_e'
p694
g2
((lp695
g179
atp696
Rp697
sS'repaglinide'
p698
g2
((lp699
g131
atp700
Rp701
sS'chlordiazepoxide_hcl_methscopolamine_nitrate'
p702
g2
((lp703
g347
atp704
Rp705
sS'clomiphene_citrate'
p706
g2
((lp707
tp708
Rp709
sS'dalfampridine'
p710
g2
((lp711
g420
atp712
Rp713
sS'meloxicam'
p714
g2
((lp715
g231
atp716
Rp717
sS'dihydrocodeine_bitartrate_gg_pse_hcl'
p718
g2
((lp719
g52
atp720
Rp721
sS'tranexamic_acid'
p722
g2
((lp723
tp724
Rp725
sS'chlorthalidone'
p726
g2
((lp727
g28
atp728
Rp729
sS'pregabalin'
p730
g2
((lp731
g420
atp732
Rp733
sS'dyphylline_guaifenesin'
p734
g2
((lp735
g92
atp736
Rp737
sS'anastrozole'
p738
g2
((lp739
g189
atp740
Rp741
sS'moexipril_hydrochloride'
p742
g2
((lp743
g208
atp744
Rp745
sS'tizanidine_hydrochloride'
p746
g2
((lp747
g406
atp748
Rp749
sS'acetic_acid_glacial_oxyquinoline_sulfate'
p750
g2
((lp751
g62
atp752
Rp753
sS'acetaminophen_oxycodone_hydrochloride'
p754
g2
((lp755
g52
atp756
Rp757
sS'entacapone'
p758
g2
((lp759
g62
atp760
Rp761
sS'hydrochlorothiazide_spironolactone'
p762
g2
((lp763
S'Diuretics, Potassium-Sparing'
p764
atp765
Rp766
sS'fe_folic_acid_succinic_acid_vit_b12_vit_c'
p767
g2
((lp768
g92
atp769
Rp770
sS'bpm_pse_hcl'
p771
g2
((lp772
g52
atp773
Rp774
sS'lovastatin'
p775
g2
((lp776
g91
atp777
Rp778
sS'lansoprazole;naproxen'
p779
g2
((lp780
g231
atp781
Rp782
sS'hydrochlorothiazide_irbesartan'
p783
g2
((lp784
g33
atp785
Rp786
sS'ibandronate_sodium'
p787
g2
((lp788
g62
atp789
Rp790
sS'estradiol_norethindrone_acetate'
p791
g2
((lp792
g674
atp793
Rp794
sS'linaclotide'
p795
g2
((lp796
S'Gastrointestinal Drug Misc'
p797
atp798
Rp799
sS'pegfilgrastim'
p800
g2
((lp801
g307
atp802
Rp803
sS'paricalcitol'
p804
g2
((lp805
S'Vitamin D'
p806
atp807
Rp808
sS'apap_dm_hydrobrom_gg_pse_hcl'
p809
g2
((lp810
g52
ag554
atp811
Rp812
sS'butoconazole_nitrate'
p813
g2
((lp814
g509
atp815
Rp816
sS'insulin_human_isophane__nph__insulin_human_r'
p817
g2
((lp818
g184
atp819
Rp820
sS'terconazole'
p821
g2
((lp822
g509
atp823
Rp824
sS'ranolazine'
p825
g2
((lp826
g33
atp827
Rp828
sS'ethinyl_estradiol_norethindrone;ferrous_fuma'
p829
g2
((lp830
g608
atp831
Rp832
sS'estazolam'
p833
g2
((lp834
g47
atp835
Rp836
sS'lancet_device'
p837
g2
((lp838
S'Diabetes Mell/Diab Supply'
p839
atp840
Rp841
sS'apap_phenyltoloxamine_cit_salicylamide'
p842
g2
((lp843
g52
ag554
atp844
Rp845
sS'carbetapentane_citrate_guaifenesin'
p846
g2
((lp847
g52
atp848
Rp849
sS'insulin_lispro__recombinant'
p850
g2
((lp851
g184
atp852
Rp853
sS'bacitracin_zn_hc_neomycin_sulf_polymyxin_b_s'
p854
g2
((lp855
g82
ag9
atp856
Rp857
sS'permethrin'
p858
g2
((lp859
g62
ag691
atp860
Rp861
sS'tiotropium_bromide'
p862
g2
((lp863
g645
atp864
Rp865
sS'aripiprazole'
p866
g2
((lp867
g261
atp868
Rp869
sS'acetaminophen_caffeine_isometheptene_mucate'
p870
g2
((lp871
g52
atp872
Rp873
sS'leuprolide_acetate'
p874
g2
((lp875
g189
atp876
Rp877
sS'chlorzoxazone'
p878
g2
((lp879
g406
atp880
Rp881
sS'bpm_phenyleph_hcl'
p882
g2
((lp883
g52
atp884
Rp885
sS'ethinyl_estradiol_norgestrel'
p886
g2
((lp887
g608
atp888
Rp889
sS'ciclopirox'
p890
g2
((lp891
g509
atp892
Rp893
sS'mirtazapine'
p894
g2
((lp895
g68
atp896
Rp897
sS'hydrochlorothiazide_olmesartan_medoxomil'
p898
g2
((lp899
g33
atp900
Rp901
sS'diethylpropion_hydrochloride'
p902
g2
((lp903
g636
atp904
Rp905
sS'typhoid_vaccine__live'
p906
g2
((lp907
g221
atp908
Rp909
sS'pirbuterol_acetate'
p910
g2
((lp911
g52
atp912
Rp913
sS'isosorbide_dinitrate'
p914
g2
((lp915
g63
atp916
Rp917
sS'metformin_hydrochloride_rosiglitazone_maleat'
p918
g2
((lp919
g131
atp920
Rp921
sS'dronabinol'
p922
g2
((lp923
g194
atp924
Rp925
sS'benzoyl_peroxide_clindamycin_phosphate'
p926
g2
((lp927
g154
ag9
atp928
Rp929
sS'cimetidine'
p930
g2
((lp931
g523
atp932
Rp933
sS'blood_test_supplies'
p934
g2
((lp935
g839
atp936
Rp937
sS'pravastatin_sodium'
p938
g2
((lp939
g91
atp940
Rp941
sS'estradiol;estradiol_norgestimate'
p942
g2
((lp943
g674
atp944
Rp945
sS'fexofenadine_hcl_pse_hcl'
p946
g2
((lp947
g52
atp948
Rp949
sS'pneumococcal_vaccine_polyvalent'
p950
g2
((lp951
g221
atp952
Rp953
sS'fentanyl_citrate'
p954
g2
((lp955
g52
atp956
Rp957
sS'insulin_human_isophane__nph_'
p958
g2
((lp959
g184
atp960
Rp961
sS'tenofovir_disoproxil_fumarate'
p962
g2
((lp963
S'Antivirals'
p964
atp965
Rp966
sS'dicloxacillin_sodium'
p967
g2
((lp968
g429
atp969
Rp970
sS'ethinyl_estradiol_levonorgestrel;placebo'
p971
g2
((lp972
g608
atp973
Rp974
sS'acetic_acid_hydrocortisone'
p975
g2
((lp976
g4
atp977
Rp978
sS'bpm_dm_hydrobrom_pse_hcl'
p979
g2
((lp980
g52
atp981
Rp982
sS'norethindrone_acetate'
p983
g2
((lp984
g62
atp985
Rp986
sS'digoxin'
p987
g2
((lp988
tp989
Rp990
sS'flurbiprofen_sodium'
p991
g2
((lp992
g4
atp993
Rp994
sS'ketoconazole'
p995
g2
((lp996
g509
atp997
Rp998
sS'acetaminophen_tramadol_hydrochloride'
p999
g2
((lp1000
g554
atp1001
Rp1002
sS'hydralazine_hydrochloride'
p1003
g2
((lp1004
g618
atp1005
Rp1006
sS'bromocriptine_mesylate'
p1007
g2
((lp1008
g62
atp1009
Rp1010
sS'acrivastine_pseudoephedrine_hydrochloride'
p1011
g2
((lp1012
g52
atp1013
Rp1014
sS'glucose_meter_test_control_strips'
p1015
g2
((lp1016
g839
atp1017
Rp1018
sS'mercaptopurine'
p1019
g2
((lp1020
g189
atp1021
Rp1022
sS'dss_fe_folic_acid_vit_b12_vit_c'
p1023
g2
((lp1024
g92
atp1025
Rp1026
sS'exemestane'
p1027
g2
((lp1028
g189
atp1029
Rp1030
sS'azelastine_hydrochloride_fluticasone_propion'
p1031
g2
((lp1032
g4
atp1033
Rp1034
sS'brimonidine_tartrate_timolol_maleate'
p1035
g2
((lp1036
g77
atp1037
Rp1038
sS'tiagabine_hydrochloride'
p1039
g2
((lp1040
g518
atp1041
Rp1042
sS'gatifloxacin'
p1043
g2
((lp1044
g9
atp1045
Rp1046
sS'mesalamine'
p1047
g2
((lp1048
g797
atp1049
Rp1050
sS'roflumilast'
p1051
g2
((lp1052
tp1053
Rp1054
sS'meter__peak_flow__spirometry'
p1055
g2
((lp1056
g839
atp1057
Rp1058
sS'latanoprost'
p1059
g2
((lp1060
g77
atp1061
Rp1062
sS'fluvastatin_sodium'
p1063
g2
((lp1064
g91
atp1065
Rp1066
sS'calcitriol'
p1067
g2
((lp1068
g806
atp1069
Rp1070
sS'rasagiline'
p1071
g2
((lp1072
g420
atp1073
Rp1074
sS'calcipotriene'
p1075
g2
((lp1076
g62
atp1077
Rp1078
sS'prenatal_vitamins'
p1079
g2
((lp1080
g92
atp1081
Rp1082
sS'estropipate'
p1083
g2
((lp1084
g674
ag62
atp1085
Rp1086
sS'tapentadol_hydrochloride'
p1087
g2
((lp1088
g52
atp1089
Rp1090
sS'hydrocodone_bitartrate_potassium_guaiacolsul'
p1091
g2
((lp1092
g52
atp1093
Rp1094
sS'lindane'
p1095
g2
((lp1096
g691
atp1097
Rp1098
sS'conjugated_estrogens_synthetic_a'
p1099
g2
((lp1100
g674
atp1101
Rp1102
sS'amlodipine_besylate_olmesartan_medoxomil'
p1103
g2
((lp1104
g544
atp1105
Rp1106
sS'epoetin_alfa'
p1107
g2
((lp1108
g307
atp1109
Rp1110
sS'escitalopram_oxalate'
p1111
g2
((lp1112
g68
atp1113
Rp1114
sS'chlorpheniramine_maleate'
p1115
g2
((lp1116
g52
atp1117
Rp1118
sS'enalapril_maleate'
p1119
g2
((lp1120
g208
atp1121
Rp1122
sS'gemifloxacin_mesylate'
p1123
g2
((lp1124
g9
atp1125
Rp1126
sS'methylprednisolone_acetate'
p1127
g2
((lp1128
g4
atp1129
Rp1130
sS'apap_butalbital_caff_codeine_phos'
p1131
g2
((lp1132
g52
atp1133
Rp1134
sS'sertaconazole_nitrate'
p1135
g2
((lp1136
g154
atp1137
Rp1138
sS'hc_neomycin_sulf_polymyxin_b_sulf'
p1139
g2
((lp1140
g82
ag4
atp1141
Rp1142
sS'atorvastatin_calcium'
p1143
g2
((lp1144
g91
atp1145
Rp1146
sS'aluminum_chloride'
p1147
g2
((lp1148
tp1149
Rp1150
sS'hydroxyzine_hydrochloride'
p1151
g2
((lp1152
S'Anxiolytic/Sedative/Hypnot'
p1153
atp1154
Rp1155
sS'metoclopramide_hydrochloride'
p1156
g2
((lp1157
g194
atp1158
Rp1159
sS'epinephrine'
p1160
g2
((lp1161
g52
atp1162
Rp1163
sS'tazarotene'
p1164
g2
((lp1165
S'Cell Stim/Proliferant S/MM'
p1166
atp1167
Rp1168
sS'collagenase'
p1169
g2
((lp1170
g401
atp1171
Rp1172
sS'aspirin_butalbital_caffeine'
p1173
g2
((lp1174
g554
atp1175
Rp1176
sS'ciprofloxacin_hydrochloride_dexamethasone'
p1177
g2
((lp1178
g9
atp1179
Rp1180
sS'ascorbic_acid_sodium_fluoride_vitamin_a_vita'
p1181
g2
((lp1182
tp1183
Rp1184
sS'dipyridamole'
p1185
g2
((lp1186
S'Antiplatelet Agents'
p1187
atp1188
Rp1189
sS'propranolol_hydrochloride'
p1190
g2
((lp1191
g140
atp1192
Rp1193
sS'fluticasone_propionate'
p1194
g2
((lp1195
g4
atp1196
Rp1197
sS'granisetron_hydrochloride'
p1198
g2
((lp1199
g194
atp1200
Rp1201
sS'azelaic_acid'
p1202
g2
((lp1203
g154
atp1204
Rp1205
sS'lisinopril'
p1206
g2
((lp1207
g208
atp1208
Rp1209
sS'ethinyl_estradiol_norethindrone'
p1210
g2
((lp1211
g608
atp1212
Rp1213
sS'imipramine_hydrochloride'
p1214
g2
((lp1215
g68
atp1216
Rp1217
sS'warfarin_sodium'
p1218
g2
((lp1219
g312
atp1220
Rp1221
sS'onabotulinumtoxina'
p1222
g2
((lp1223
tp1224
Rp1225
sS'benazepril_hydrochloride'
p1226
g2
((lp1227
g208
atp1228
Rp1229
sS'brimonidine_tartrate'
p1230
g2
((lp1231
g77
atp1232
Rp1233
sS'rivastigmine_tartrate'
p1234
g2
((lp1235
g321
atp1236
Rp1237
sS'nystatin'
p1238
g2
((lp1239
g509
atp1240
Rp1241
sS'pindolol'
p1242
g2
((lp1243
g140
atp1244
Rp1245
sS'zolpidem_tartrate'
p1246
g2
((lp1247
g1153
atp1248
Rp1249
sS'insulin_syringe_needle'
p1250
g2
((lp1251
g839
atp1252
Rp1253
sS'diclofenac_sodium'
p1254
g2
((lp1255
g62
ag231
ag4
atp1256
Rp1257
sS'cpm_phenyleph_hcl_phenyltoloxamine_cit'
p1258
g2
((lp1259
g52
atp1260
Rp1261
sS'cyanocobalamin_folic_acid_iron_polysaccharid'
p1262
g2
((lp1263
g92
atp1264
Rp1265
sS'diflorasone_diacetate'
p1266
g2
((lp1267
g4
atp1268
Rp1269
sS'paregoric'
p1270
g2
((lp1271
g496
atp1272
Rp1273
sS'fluorometholone_acetate'
p1274
g2
((lp1275
g4
atp1276
Rp1277
sS'cpm_pse_hcl'
p1278
g2
((lp1279
g52
atp1280
Rp1281
sS'sumatriptan_succinate'
p1282
g2
((lp1283
S'Vascular 5HT1 Agonist'
p1284
atp1285
Rp1286
sS'armodafinil'
p1287
g2
((lp1288
g636
atp1289
Rp1290
sS'ezetimibe'
p1291
g2
((lp1292
g91
atp1293
Rp1294
sS'insulin_human_regular'
p1295
g2
((lp1296
g184
atp1297
Rp1298
sS'polyvinyl_alcohol_povidone'
p1299
g2
((lp1300
g274
atp1301
Rp1302
sS'imatinib_mesylate'
p1303
g2
((lp1304
g189
atp1305
Rp1306
sS'celecoxib'
p1307
g2
((lp1308
g231
atp1309
Rp1310
sS'aliskiren_valsartan'
p1311
g2
((lp1312
g33
atp1313
Rp1314
sS'dexmethylphenidate_hydrochloride'
p1315
g2
((lp1316
g636
atp1317
Rp1318
sS'insulin_detemir'
p1319
g2
((lp1320
g184
atp1321
Rp1322
sS'belladonna_alkaloids_and_analgesics'
p1323
g2
((lp1324
g62
ag342
atp1325
Rp1326
sS'ofloxacin'
p1327
g2
((lp1328
g9
atp1329
Rp1330
sS'sulfacetamide_sodium'
p1331
g2
((lp1332
g9
atp1333
Rp1334
sS'cetirizine_hydrochloride'
p1335
g2
((lp1336
g52
atp1337
Rp1338
sS'multivitamin__minerals__and_iron'
p1339
g2
((lp1340
g92
atp1341
Rp1342
sS'norfloxacin'
p1343
g2
((lp1344
g9
atp1345
Rp1346
sS'amitriptyline_hydrochloride_chlordiazepoxide'
p1347
g2
((lp1348
g68
atp1349
Rp1350
sS'hydrocortisone_acetate'
p1351
g2
((lp1352
g4
atp1353
Rp1354
sS'meperidine_hcl_promethazine_hcl'
p1355
g2
((lp1356
g52
atp1357
Rp1358
sS'sulfamethoxazole_trimethoprim'
p1359
g2
((lp1360
tp1361
Rp1362
sS'carbinoxamine_mal_hydrocod_bit_pse_hcl'
p1363
g2
((lp1364
g52
atp1365
Rp1366
sS'oseltamivir_phosphate'
p1367
g2
((lp1368
g964
atp1369
Rp1370
sS'dm_hydrobrom_gg_k_guai'
p1371
g2
((lp1372
g52
atp1373
Rp1374
sS'balsalazide_disodium'
p1375
g2
((lp1376
g797
atp1377
Rp1378
sS'acetaminophen_propoxyphene_napsylate'
p1379
g2
((lp1380
g52
atp1381
Rp1382
sS'estradiol_cypionate'
p1383
g2
((lp1384
g674
atp1385
Rp1386
sS'atovaquone'
p1387
g2
((lp1388
g411
atp1389
Rp1390
sS'ferrous_fum_stomach__desiccated_vit_b12_vit_'
p1391
g2
((lp1392
g92
atp1393
Rp1394
sS'nicotine'
p1395
g2
((lp1396
tp1397
Rp1398
sS'liothyronine_sodium'
p1399
g2
((lp1400
S'Thy/Antithy, Thyroid/Hormones'
p1401
atp1402
Rp1403
sS'furosemide'
p1404
g2
((lp1405
S'Diuretics, Loop Diuretics'
p1406
atp1407
Rp1408
sS'donepezil_hydrochloride'
p1409
g2
((lp1410
g321
atp1411
Rp1412
sS'acitretin'
p1413
g2
((lp1414
tp1415
Rp1416
sS'oxybutynin_chloride'
p1417
g2
((lp1418
g23
atp1419
Rp1420
sS'ethinyl_estradiol_norethindrone_ace;ferrous_'
p1421
g2
((lp1422
g608
atp1423
Rp1424
sS'famciclovir'
p1425
g2
((lp1426
g964
atp1427
Rp1428
sS'levobunolol_hydrochloride'
p1429
g2
((lp1430
g77
atp1431
Rp1432
sS'atropine_sulf_hyoscyamine_sulf_pb_scop_hydro'
p1433
g2
((lp1434
g797
ag347
atp1435
Rp1436
sS'atomoxetine_hydrochloride'
p1437
g2
((lp1438
g420
atp1439
Rp1440
sS'cinacalcet_hydrochloride'
p1441
g2
((lp1442
g62
atp1443
Rp1444
sS'acetaminophen_propoxyphene_hydrochloride'
p1445
g2
((lp1446
g52
atp1447
Rp1448
sS'acetic_acid_aluminum_acetate'
p1449
g2
((lp1450
tp1451
Rp1452
sS'metformin_hydrochloride_sitagliptin_phosphat'
p1453
g2
((lp1454
g131
atp1455
Rp1456
sS'brompheniramine_tan_dm_tan_phenyleph_tan'
p1457
g2
((lp1458
g52
atp1459
Rp1460
sS'colestipol_hydrochloride__micronized'
p1461
g2
((lp1462
g91
atp1463
Rp1464
sS'risedronate_sodium'
p1465
g2
((lp1466
g62
atp1467
Rp1468
sS'triazolam'
p1469
g2
((lp1470
g47
atp1471
Rp1472
sS'aprepitant'
p1473
g2
((lp1474
g194
atp1475
Rp1476
sS'amoxicillin;clarithromycin;lansoprazole'
p1477
g2
((lp1478
g9
ag429
atp1479
Rp1480
sS'disinfectant_prep_pad'
p1481
g2
((lp1482
g839
atp1483
Rp1484
sS'bethanechol_chloride'
p1485
g2
((lp1486
g321
atp1487
Rp1488
sS'glycopyrrolate'
p1489
g2
((lp1490
g347
atp1491
Rp1492
sS'gg_hydrocod_bit_pse_hcl'
p1493
g2
((lp1494
g52
atp1495
Rp1496
sS'dm_hydrobrom_gg_pse_hcl'
p1497
g2
((lp1498
g52
atp1499
Rp1500
sS'candesartan_cilexetil'
p1501
g2
((lp1502
g33
atp1503
Rp1504
sS'ketamine_hydrochloride'
p1505
g2
((lp1506
tp1507
Rp1508
sS'enoxaparin_sodium'
p1509
g2
((lp1510
g312
atp1511
Rp1512
sS'fluoxetine_hydrochloride_olanzapine'
p1513
g2
((lp1514
g420
atp1515
Rp1516
sS'pramlintide_acetate'
p1517
g2
((lp1518
g131
atp1519
Rp1520
sS'amiodarone_hydrochloride'
p1521
g2
((lp1522
g623
atp1523
Rp1524
sS'methenamine_hippurate'
p1525
g2
((lp1526
g342
atp1527
Rp1528
sS'eszopiclone'
p1529
g2
((lp1530
g1153
atp1531
Rp1532
sS'ibuprofen_oxycodone_hydrochloride'
p1533
g2
((lp1534
g52
atp1535
Rp1536
sS'verapamil_hydrochloride'
p1537
g2
((lp1538
g544
atp1539
Rp1540
sS'naltrexone_hydrochloride'
p1541
g2
((lp1542
tp1543
Rp1544
sS'phenyleph_hcl_promethazine_hcl'
p1545
g2
((lp1546
g52
atp1547
Rp1548
sS'methyldopa'
p1549
g2
((lp1550
g618
atp1551
Rp1552
sS'ergocalciferol'
p1553
g2
((lp1554
g806
atp1555
Rp1556
sS'etanercept'
p1557
g2
((lp1558
g18
atp1559
Rp1560
sS'darbepoetin_alfa'
p1561
g2
((lp1562
g307
atp1563
Rp1564
sS'water__sterile'
p1565
g2
((lp1566
tp1567
Rp1568
sS'milnacipran_hydrochloride'
p1569
g2
((lp1570
g420
atp1571
Rp1572
sS'hydrocortisone_butyrate'
p1573
g2
((lp1574
g4
atp1575
Rp1576
sS'device__inhalation'
p1577
g2
((lp1578
g839
atp1579
Rp1580
sS'benzoyl_peroxide_urea'
p1581
g2
((lp1582
g154
atp1583
Rp1584
sS'rho_d__immune_globulin'
p1585
g2
((lp1586
tp1587
Rp1588
sS'adalimumab'
p1589
g2
((lp1590
g18
atp1591
Rp1592
sS'bepotastine_besilate'
p1593
g2
((lp1594
g463
atp1595
Rp1596
sS'saxagliptin_hydrochloride'
p1597
g2
((lp1598
g131
atp1599
Rp1600
sS'sertraline_hydrochloride'
p1601
g2
((lp1602
g68
atp1603
Rp1604
sS'aclidinium_bromide'
p1605
g2
((lp1606
g645
atp1607
Rp1608
sS'loratadine'
p1609
g2
((lp1610
g52
atp1611
Rp1612
sS'dexamethasone'
p1613
g2
((lp1614
g4
atp1615
Rp1616
sS'citalopram_hydrobromide'
p1617
g2
((lp1618
g68
atp1619
Rp1620
sS'carbetapentane_tannate_phenylephrine_tannate'
p1621
g2
((lp1622
g52
atp1623
Rp1624
sS'metolazone'
p1625
g2
((lp1626
g28
atp1627
Rp1628
sS'brompheniramine_tannate'
p1629
g2
((lp1630
g52
atp1631
Rp1632
sS'ceftibuten'
p1633
g2
((lp1634
g446
atp1635
Rp1636
sS'naratriptan_hydrochloride'
p1637
g2
((lp1638
g1284
atp1639
Rp1640
sS'metaxalone'
p1641
g2
((lp1642
g406
atp1643
Rp1644
sS'ganciclovir'
p1645
g2
((lp1646
g964
atp1647
Rp1648
sS'dm_hydrobrom_k_guai'
p1649
g2
((lp1650
g52
atp1651
Rp1652
sS'mouthwash'
p1653
g2
((lp1654
g62
ag248
atp1655
Rp1656
sS'guaifenesin_hydrocodone_bitartrate'
p1657
g2
((lp1658
g52
atp1659
Rp1660
sS'hyaluronic_acid'
p1661
g2
((lp1662
g62
atp1663
Rp1664
sS'clocortolone_pivalate'
p1665
g2
((lp1666
g4
atp1667
Rp1668
sS'tolterodine_tartrate'
p1669
g2
((lp1670
g23
atp1671
Rp1672
sS'lancet'
p1673
g2
((lp1674
g839
atp1675
Rp1676
sS'zaleplon'
p1677
g2
((lp1678
g1153
atp1679
Rp1680
sS'l-methylfolate_vit_b12_vit_b2_vit_b6'
p1681
g2
((lp1682
g92
atp1683
Rp1684
sS'dexchlorpheniramine_mal_hydrocod_bit_phenyle'
p1685
g2
((lp1686
g52
atp1687
Rp1688
sS'nabumetone'
p1689
g2
((lp1690
g231
atp1691
Rp1692
sS'tetracycline_hydrochloride'
p1693
g2
((lp1694
g9
atp1695
Rp1696
sS'gramicidin_neomycin_sulfate_polymyxin_b_sulf'
p1697
g2
((lp1698
g9
atp1699
Rp1700
sS'candesartan_cilexetil_hydrochlorothiazide'
p1701
g2
((lp1702
g33
atp1703
Rp1704
sS'cpm_dm_hydrobrom_phenyleph_hcl'
p1705
g2
((lp1706
g52
atp1707
Rp1708
sS'travoprost'
p1709
g2
((lp1710
g77
atp1711
Rp1712
sS'ethinyl_estradiol;ethinyl_estradiol_levonorg'
p1713
g2
((lp1714
g608
atp1715
Rp1716
sS'potassium_iodide'
p1717
g2
((lp1718
g52
atp1719
Rp1720
sS'esomeprazole_magnesium'
p1721
g2
((lp1722
g797
atp1723
Rp1724
sS'pilocarpine_hydrochloride'
p1725
g2
((lp1726
g321
atp1727
Rp1728
sS'acetazolamide'
p1729
g2
((lp1730
tp1731
Rp1732
sS'epinephrine_hydrochloride'
p1733
g2
((lp1734
g52
atp1735
Rp1736
sS'bi_subcitrate_k_metronidazole_tetracycline_h'
p1737
g2
((lp1738
g411
atp1739
Rp1740
sS'pemirolast_potassium'
p1741
g2
((lp1742
g77
atp1743
Rp1744
sS'asenapine'
p1745
g2
((lp1746
g261
atp1747
Rp1748
sS'salmeterol_xinafoate'
p1749
g2
((lp1750
g52
atp1751
Rp1752
sS'hyoscyamine_sulfate'
p1753
g2
((lp1754
g347
atp1755
Rp1756
sS'bpm_codeine_phos_phenyleph_hcl'
p1757
g2
((lp1758
g52
atp1759
Rp1760
sS'haloperidol_lactate'
p1761
g2
((lp1762
g261
atp1763
Rp1764
sS'butorphanol_tartrate'
p1765
g2
((lp1766
S'Analy/Antipyr,OpiatePart Agnst'
p1767
atp1768
Rp1769
sS'ciprofloxacin'
p1770
g2
((lp1771
g9
atp1772
Rp1773
sS'denosumab'
p1774
g2
((lp1775
g62
atp1776
Rp1777
sS'belladonna_alkaloids_opium_alkaloids'
p1778
g2
((lp1779
g52
atp1780
Rp1781
sS'citric_acid_magnesium_oxide_sodium_picosulfa'
p1782
g2
((lp1783
tp1784
Rp1785
sS'zinc_sulfate'
p1786
g2
((lp1787
g77
atp1788
Rp1789
sS'certolizumab_pegol'
p1790
g2
((lp1791
g18
atp1792
Rp1793
sS'lisdexamfetamine_dimesylate'
p1794
g2
((lp1795
g636
atp1796
Rp1797
sS'bromfenac'
p1798
g2
((lp1799
g4
atp1800
Rp1801
sS'progesterone__wettable'
p1802
g2
((lp1803
tp1804
Rp1805
sS'meprobamate'
p1806
g2
((lp1807
g1153
atp1808
Rp1809
sS'cefprozil'
p1810
g2
((lp1811
g446
atp1812
Rp1813
sS'folic_acid'
p1814
g2
((lp1815
g92
atp1816
Rp1817
sS'frovatriptan_succinate'
p1818
g2
((lp1819
g1284
atp1820
Rp1821
sS'selenium_sulfide'
p1822
g2
((lp1823
tp1824
Rp1825
sS'gemfibrozil'
p1826
g2
((lp1827
g91
atp1828
Rp1829
sS'esterified_estrogens_methyltestosterone'
p1830
g2
((lp1831
g674
atp1832
Rp1833
sS'clonidine_hydrochloride'
p1834
g2
((lp1835
g618
ag554
atp1836
Rp1837
sS'methylprednisolone'
p1838
g2
((lp1839
g4
atp1840
Rp1841
sS'mefenamic_acid'
p1842
g2
((lp1843
g231
atp1844
Rp1845
sS'memantine_hydrochloride'
p1846
g2
((lp1847
g420
atp1848
Rp1849
sS'ritonavir'
p1850
g2
((lp1851
g964
atp1852
Rp1853
sS'levocetirizine_dihydrochloride'
p1854
g2
((lp1855
g52
atp1856
Rp1857
sS'hepatitis_a_vaccine__inactivated'
p1858
g2
((lp1859
g221
atp1860
Rp1861
sS'sodium_polystyrene_sulfonate'
p1862
g2
((lp1863
tp1864
Rp1865
sS'alosetron_hydrochloride'
p1866
g2
((lp1867
g797
atp1868
Rp1869
sS'formaldehyde'
p1870
g2
((lp1871
g62
atp1872
Rp1873
sS'naproxen_sodium_sumatriptan_succinate'
p1874
g2
((lp1875
g231
atp1876
Rp1877
sS'amlexanox'
p1878
g2
((lp1879
g4
atp1880
Rp1881
sS'formoterol_fumarate_mometasone_furoate'
p1882
g2
((lp1883
g4
atp1884
Rp1885
sS'k_cl_na_bicarb_na_cl_na_sulf_peg'
p1886
g2
((lp1887
g57
atp1888
Rp1889
sS'amantadine_hydrochloride'
p1890
g2
((lp1891
g964
atp1892
Rp1893
sS'codeine_phos_gg_pse_hcl'
p1894
g2
((lp1895
g52
atp1896
Rp1897
sS'hyaluronate_sodium'
p1898
g2
((lp1899
g62
ag77
atp1900
Rp1901
sS'fludrocortisone_acetate'
p1902
g2
((lp1903
g4
atp1904
Rp1905
sS'podofilox'
p1906
g2
((lp1907
g153
atp1908
Rp1909
sS'methocarbamol'
p1910
g2
((lp1911
g406
atp1912
Rp1913
sS'nitazoxanide'
p1914
g2
((lp1915
g411
atp1916
Rp1917
sS'amlodipine_besylate_atorvastatin_calcium'
p1918
g2
((lp1919
g33
atp1920
Rp1921
sS'rivaroxaban'
p1922
g2
((lp1923
g312
atp1924
Rp1925
sS'glucose_meter_test_control'
p1926
g2
((lp1927
g839
atp1928
Rp1929
sS'divalproex_sodium'
p1930
g2
((lp1931
g518
atp1932
Rp1933
sS'nifedipine'
p1934
g2
((lp1935
g544
atp1936
Rp1937
sS'morphine_sulfate'
p1938
g2
((lp1939
g52
atp1940
Rp1941
sS'eletriptan_hydrobromide'
p1942
g2
((lp1943
g1284
atp1944
Rp1945
sS'halobetasol_propionate'
p1946
g2
((lp1947
g4
atp1948
Rp1949
sS'becaplermin'
p1950
g2
((lp1951
g62
atp1952
Rp1953
sS'urofollitropin'
p1954
g2
((lp1955
g384
atp1956
Rp1957
sS'beclomethasone_dipropionate_monohydrate'
p1958
g2
((lp1959
g4
atp1960
Rp1961
sS'sodium_fluoride_xylitol'
p1962
g2
((lp1963
S'Fluoride Preparations'
p1964
atp1965
Rp1966
sS'phenobarbital'
p1967
g2
((lp1968
tp1969
Rp1970
sS'hydrochlorothiazide_quinapril_hydrochloride'
p1971
g2
((lp1972
g208
atp1973
Rp1974
sS'aliskiren'
p1975
g2
((lp1976
g33
atp1977
Rp1978
sS'norethindrone'
p1979
g2
((lp1980
g62
atp1981
Rp1982
sS'irbesartan'
p1983
g2
((lp1984
g33
atp1985
Rp1986
sS'cetirizine_hcl_pse_hcl'
p1987
g2
((lp1988
g52
atp1989
Rp1990
sS'bpm_dm_hydrobrom_gg_pse_hcl'
p1991
g2
((lp1992
g52
atp1993
Rp1994
sS'raloxifene_hydrochloride'
p1995
g2
((lp1996
g674
atp1997
Rp1998
sS'sodium_chloride'
p1999
g2
((lp2000
g62
ag274
ag77
atp2001
Rp2002
sS'aloe_hydrocortisone_iodoquinol'
p2003
g2
((lp2004
g4
atp2005
Rp2006
sS'diazepam'
p2007
g2
((lp2008
g47
atp2009
Rp2010
sS'acyclovir'
p2011
g2
((lp2012
g964
atp2013
Rp2014
sS'isoniazid'
p2015
g2
((lp2016
g226
atp2017
Rp2018
sS'ethinyl_estradiol_ferrous_fum_norethindrone_'
p2019
g2
((lp2020
g608
atp2021
Rp2022
sS'hydrocortisone_acetate_lidocaine_hydrochlori'
p2023
g2
((lp2024
g248
ag4
atp2025
Rp2026
sS'carbinoxamine_mal_pse_hcl'
p2027
g2
((lp2028
g52
atp2029
Rp2030
sS'glimepiride_rosiglitazone_maleate'
p2031
g2
((lp2032
g131
atp2033
Rp2034
sS'albuterol'
p2035
g2
((lp2036
g52
atp2037
Rp2038
sS'levofloxacin'
p2039
g2
((lp2040
g9
atp2041
Rp2042
sS'sodium_fluoride'
p2043
g2
((lp2044
g1964
atp2045
Rp2046
sS'gentamicin_sulfate'
p2047
g2
((lp2048
g9
atp2049
Rp2050
sS'clomipramine_hydrochloride'
p2051
g2
((lp2052
g68
atp2053
Rp2054
sS'bumetanide'
p2055
g2
((lp2056
g1406
atp2057
Rp2058
sS'tretinoin'
p2059
g2
((lp2060
g189
ag1166
atp2061
Rp2062
sS'telithromycin'
p2063
g2
((lp2064
g9
atp2065
Rp2066
sS'asa_oxycodone_hcl_oxycodone_terephthalate'
p2067
g2
((lp2068
g52
atp2069
Rp2070
sS'risperidone'
p2071
g2
((lp2072
g261
atp2073
Rp2074
sS'metoprolol_tartrate'
p2075
g2
((lp2076
g140
atp2077
Rp2078
sS'prednisone'
p2079
g2
((lp2080
g4
atp2081
Rp2082
sS'barium_sulfate'
p2083
g2
((lp2084
tp2085
Rp2086
sS'clonazepam'
p2087
g2
((lp2088
tp2089
Rp2090
sS'methylphenidate'
p2091
g2
((lp2092
g636
atp2093
Rp2094
sS'buprenorphine_hydrochloride'
p2095
g2
((lp2096
g1767
atp2097
Rp2098
sS'linezolid'
p2099
g2
((lp2100
g9
atp2101
Rp2102
sS'diclofenac_epolamine'
p2103
g2
((lp2104
g62
atp2105
Rp2106
sS'acarbose'
p2107
g2
((lp2108
g131
atp2109
Rp2110
sS'trimethobenzamide_hydrochloride'
p2111
g2
((lp2112
g194
atp2113
Rp2114
sS'hylan_polymers_a_and_b'
p2115
g2
((lp2116
g62
atp2117
Rp2118
sS'estradiol_levonorgestrel'
p2119
g2
((lp2120
g674
atp2121
Rp2122
sS'hydroquinone'
p2123
g2
((lp2124
tp2125
Rp2126
sS'albuterol_sulfate'
p2127
g2
((lp2128
g52
atp2129
Rp2130
sS'influenza_virus_vaccine'
p2131
g2
((lp2132
g221
atp2133
Rp2134
sS'lidocaine_prilocaine'
p2135
g2
((lp2136
g248
atp2137
Rp2138
sS'amlodipine_besylate_hctz_olmesartan_medoxomi'
p2139
g2
((lp2140
g33
atp2141
Rp2142
sS'lenalidomide'
p2143
g2
((lp2144
S'Biological Response Modifiers'
p2145
atp2146
Rp2147
sS'fondaparinux_sodium'
p2148
g2
((lp2149
g312
atp2150
Rp2151
sS'acebutolol_hydrochloride'
p2152
g2
((lp2153
g140
atp2154
Rp2155
sS'tacrolimus'
p2156
g2
((lp2157
g18
ag62
atp2158
Rp2159
sS'colestipol_hydrochloride'
p2160
g2
((lp2161
g91
atp2162
Rp2163
sS'acetaminophen_butalbital'
p2164
g2
((lp2165
g554
atp2166
Rp2167
sS'potassium_chloride'
p2168
g2
((lp2169
S'Repl Preps, Potassium Supp'
p2170
ag62
atp2171
Rp2172
sS'glucose_meter'
p2173
g2
((lp2174
g839
atp2175
Rp2176
sS'indomethacin'
p2177
g2
((lp2178
g231
atp2179
Rp2180
sS'ethinyl_estradiol_ethynodiol_diacetate'
p2181
g2
((lp2182
g608
atp2183
Rp2184
sS'protriptyline_hydrochloride'
p2185
g2
((lp2186
g68
atp2187
Rp2188
sS'amitriptyline_hydrochloride_perphenazine'
p2189
g2
((lp2190
g68
atp2191
Rp2192
sS'potassium_nitrate_sodium_fluoride'
p2193
g2
((lp2194
g248
ag1964
atp2195
Rp2196
sS'hydrocodone_bitartrate_ibuprofen'
p2197
g2
((lp2198
g52
atp2199
Rp2200
sS'fluocinonide'
p2201
g2
((lp2202
g4
atp2203
Rp2204
sS'mupirocin'
p2205
g2
((lp2206
g9
atp2207
Rp2208
sS'tobramycin'
p2209
g2
((lp2210
g9
atp2211
Rp2212
sS'cevimeline_hydrochloride'
p2213
g2
((lp2214
g321
atp2215
Rp2216
sS'insulin_glargine__recombinant'
p2217
g2
((lp2218
g184
atp2219
Rp2220
sS'clonidine'
p2221
g2
((lp2222
g618
atp2223
Rp2224
sS'hydrochlorothiazide_losartan_potassium'
p2225
g2
((lp2226
g33
atp2227
Rp2228
sS'sibutramine_hydrochloride'
p2229
g2
((lp2230
g62
atp2231
Rp2232
sS'ammonium_lactate'
p2233
g2
((lp2234
g179
atp2235
Rp2236
sS'letrozole'
p2237
g2
((lp2238
g189
atp2239
Rp2240
sS'albendazole'
p2241
g2
((lp2242
g603
atp2243
Rp2244
sS'bpm_hydrocod_bit_pse_hcl'
p2245
g2
((lp2246
g52
atp2247
Rp2248
sS'formoterol_fumarate'
p2249
g2
((lp2250
g52
atp2251
Rp2252
sS'cpm_tan_carbetapentane_tan_phenyleph_tan'
p2253
g2
((lp2254
g52
atp2255
Rp2256
sS'fexofenadine_hydrochloride'
p2257
g2
((lp2258
g52
atp2259
Rp2260
sS'polymyxin_b_sulfate_trimethoprim_sulfate'
p2261
g2
((lp2262
g9
atp2263
Rp2264
sS'solifenacin_succinate'
p2265
g2
((lp2266
g23
atp2267
Rp2268
sS'cholestyramine'
p2269
g2
((lp2270
g91
atp2271
Rp2272
sS'drospirenone_ethinyl_estradiol'
p2273
g2
((lp2274
g608
atp2275
Rp2276
sS'trihexyphenidyl_hydrochloride'
p2277
g2
((lp2278
tp2279
Rp2280
sS'propoxyphene_napsylate'
p2281
g2
((lp2282
g52
atp2283
Rp2284
sS'loteprednol_etabonate'
p2285
g2
((lp2286
g4
atp2287
Rp2288
sS'colesevelam_hydrochloride'
p2289
g2
((lp2290
g91
atp2291
Rp2292
sS'prednisolone_sodium_phosphate_sulfacetamide_'
p2293
g2
((lp2294
g82
atp2295
Rp2296
sS'fluorometholone'
p2297
g2
((lp2298
g4
atp2299
Rp2300
sS'diclofenac_potassium'
p2301
g2
((lp2302
g231
atp2303
Rp2304
sS'cefpodoxime_proxetil'
p2305
g2
((lp2306
g446
atp2307
Rp2308
sS'acetaminophen_butalbital_caffeine'
p2309
g2
((lp2310
g554
atp2311
Rp2312
sS'buprenorphine_hydrochloride_naloxone_hydroch'
p2313
g2
((lp2314
g1767
atp2315
Rp2316
sS'primidone'
p2317
g2
((lp2318
g518
atp2319
Rp2320
sS'nortriptyline_hydrochloride'
p2321
g2
((lp2322
g68
atp2323
Rp2324
sS'olmesartan_medoxomil'
p2325
g2
((lp2326
g33
atp2327
Rp2328
sS'naftifine_hydrochloride'
p2329
g2
((lp2330
g509
atp2331
Rp2332
sS'nepafenac'
p2333
g2
((lp2334
g4
atp2335
Rp2336
sS'beclomethasone_dipropionate'
p2337
g2
((lp2338
g4
atp2339
Rp2340
sS'codeine_phosphate_promethazine_hydrochloride'
p2341
g2
((lp2342
g52
atp2343
Rp2344
sS'propoxyphene_hydrochloride'
p2345
g2
((lp2346
g52
atp2347
Rp2348
sS'famotidine'
p2349
g2
((lp2350
g523
atp2351
Rp2352
sS'estradiol_valerate'
p2353
g2
((lp2354
g674
atp2355
Rp2356
sS'moxifloxacin_hydrochloride'
p2357
g2
((lp2358
g9
atp2359
Rp2360
sS'zanamivir'
p2361
g2
((lp2362
g964
atp2363
Rp2364
sS'clotrimazole'
p2365
g2
((lp2366
g509
atp2367
Rp2368
sS'dextroamphetamine_sulfate'
p2369
g2
((lp2370
g636
atp2371
Rp2372
sS'benzyl_alcohol'
p2373
g2
((lp2374
S'Pharmaceutical Aids/Adjuv'
p2375
atp2376
Rp2377
sS'nateglinide'
p2378
g2
((lp2379
g131
atp2380
Rp2381
sS'influenza_a_virus_vaccine__h1n1__inactivated'
p2382
g2
((lp2383
g221
atp2384
Rp2385
sS'esomeprazole_magnesium_naproxen'
p2386
g2
((lp2387
g231
atp2388
Rp2389
sS'multivitamin_and_iron'
p2390
g2
((lp2391
g92
atp2392
Rp2393
sS'dm_hydrobrom_phenyleph_hcl_pyril_mal'
p2394
g2
((lp2395
g52
atp2396
Rp2397
sS'erythromycin'
p2398
g2
((lp2399
g92
ag9
atp2400
Rp2401
sS'ciprofloxacin_hydrochloride_hydrocortisone'
p2402
g2
((lp2403
g9
atp2404
Rp2405
sS'benzocaine'
p2406
g2
((lp2407
g248
atp2408
Rp2409
sS'labetalol_hydrochloride'
p2410
g2
((lp2411
tp2412
Rp2413
sS'promethazine_hydrochloride'
p2414
g2
((lp2415
g52
atp2416
Rp2417
sS'gabapentin'
p2418
g2
((lp2419
g518
atp2420
Rp2421
sS'vilazodone_hydrochloride'
p2422
g2
((lp2423
g68
atp2424
Rp2425
sS'timolol_maleate'
p2426
g2
((lp2427
g140
ag77
atp2428
Rp2429
sS'albuterol_sulfate_ipratropium_bromide'
p2430
g2
((lp2431
g52
atp2432
Rp2433
sS'conjugated_estrogens_medroxyprogesterone_ace'
p2434
g2
((lp2435
g674
atp2436
Rp2437
sS'probenecid'
p2438
g2
((lp2439
g109
atp2440
Rp2441
sS'benzonatate'
p2442
g2
((lp2443
g52
atp2444
Rp2445
sS'valsartan'
p2446
g2
((lp2447
g33
atp2448
Rp2449
sS'sucralfate'
p2450
g2
((lp2451
g797
atp2452
Rp2453
sS'benzoyl_peroxide_hydrocortisone'
p2454
g2
((lp2455
g62
ag154
atp2456
Rp2457
sS'ethinyl_estradiol_norethindrone_acetate'
p2458
g2
((lp2459
g608
atp2460
Rp2461
sS'diflunisal'
p2462
g2
((lp2463
g554
atp2464
Rp2465
sS'torsemide'
p2466
g2
((lp2467
g1406
atp2468
Rp2469
sS'mupirocin_calcium'
p2470
g2
((lp2471
g9
atp2472
Rp2473
sS'scopolamine_hydrobromide'
p2474
g2
((lp2475
g347
atp2476
Rp2477
sS'cpm_dm_hydrobrom_pse_hcl'
p2478
g2
((lp2479
g52
atp2480
Rp2481
sS'glipizide'
p2482
g2
((lp2483
g199
atp2484
Rp2485
sS'itraconazole'
p2486
g2
((lp2487
g509
atp2488
Rp2489
sS'orphenadrine_citrate'
p2490
g2
((lp2491
tp2492
Rp2493
sS'testosterone__micronized'
p2494
g2
((lp2495
tp2496
Rp2497
sS'cyclosporine__modified'
p2498
g2
((lp2499
g18
atp2500
Rp2501
sS'canagliflozin'
p2502
g2
((lp2503
g131
atp2504
Rp2505
sS'palivizumab'
p2506
g2
((lp2507
g964
atp2508
Rp2509
sS'losartan_potassium'
p2510
g2
((lp2511
g33
atp2512
Rp2513
sS'ketotifen_fumarate'
p2514
g2
((lp2515
g77
atp2516
Rp2517
sS'omeprazole'
p2518
g2
((lp2519
g797
atp2520
Rp2521
sS'hydrochlorothiazide_moexipril_hydrochloride'
p2522
g2
((lp2523
g208
atp2524
Rp2525
sS'fluconazole'
p2526
g2
((lp2527
g509
atp2528
Rp2529
sS'belladonna_alkaloids_ergotamine_tart_pb'
p2530
g2
((lp2531
g347
atp2532
Rp2533
sS'acetic_acid_oxyquinoline_sulfate_ricinoleic_'
p2534
g2
((lp2535
g62
atp2536
Rp2537
sS'magnesium_sulfate_potassium_sulfate_sodium_s'
p2538
g2
((lp2539
tp2540
Rp2541
sS'cilostazol'
p2542
g2
((lp2543
g1187
atp2544
Rp2545
sS'olopatadine_hydrochloride'
p2546
g2
((lp2547
g77
atp2548
Rp2549
sS'benzoyl_peroxide_erythromycin'
p2550
g2
((lp2551
g9
atp2552
Rp2553
sS'aspirin_dipyridamole'
p2554
g2
((lp2555
g1187
atp2556
Rp2557
sS'heparin_sodium'
p2558
g2
((lp2559
g312
atp2560
Rp2561
sS'oxiconazole_nitrate'
p2562
g2
((lp2563
g509
atp2564
Rp2565
sS'cephalexin'
p2566
g2
((lp2567
g446
atp2568
Rp2569
sS'amphetamine_salt_combination'
p2570
g2
((lp2571
g636
atp2572
Rp2573
sS'vitamin_b_complex_and_vitamin_c'
p2574
g2
((lp2575
g92
atp2576
Rp2577
sS'acetic_acid'
p2578
g2
((lp2579
tp2580
Rp2581
sS'pitavastatin_calcium'
p2582
g2
((lp2583
g91
atp2584
Rp2585
sS'potassium_bicarbonate_potassium_citrate'
p2586
g2
((lp2587
g2170
atp2588
Rp2589
sS'omeprazole_sodium_bicarbonate'
p2590
g2
((lp2591
g797
atp2592
Rp2593
sS'difluprednate'
p2594
g2
((lp2595
g4
atp2596
Rp2597
sS'azithromycin'
p2598
g2
((lp2599
g9
atp2600
Rp2601
sS'insulin_lispro_insulin_lispro_protamine'
p2602
g2
((lp2603
g184
atp2604
Rp2605
sS'leflunomide'
p2606
g2
((lp2607
g62
atp2608
Rp2609
sS'epinastine_hydrochloride'
p2610
g2
((lp2611
g463
atp2612
Rp2613
sS'estradiol_norgestimate'
p2614
g2
((lp2615
g674
atp2616
Rp2617
sS'cpm_codeine_phos_pse_hcl'
p2618
g2
((lp2619
g52
atp2620
Rp2621
sS'tegaserod_maleate'
p2622
g2
((lp2623
g797
atp2624
Rp2625
sS'cpm_tan_phenyleph_tan_pyril_tan'
p2626
g2
((lp2627
g52
atp2628
Rp2629
sS'amlodipine_besylate'
p2630
g2
((lp2631
g544
atp2632
Rp2633
sS'amoxicillin'
p2634
g2
((lp2635
g429
atp2636
Rp2637
sS'paroxetine_mesylate'
p2638
g2
((lp2639
g68
atp2640
Rp2641
sS'tamsulosin_hydrochloride'
p2642
g2
((lp2643
g62
atp2644
Rp2645
sS'cefuroxime_axetil'
p2646
g2
((lp2647
g446
atp2648
Rp2649
sS'cpm_dm_hydrobrom_gg_phenyleph_hcl'
p2650
g2
((lp2651
g52
atp2652
Rp2653
sS'glyburide__micronized'
p2654
g2
((lp2655
g199
atp2656
Rp2657
sS'doxercalciferol'
p2658
g2
((lp2659
g806
atp2660
Rp2661
sS'acetaminophen_caffeine_dihydrocodeine_bitart'
p2662
g2
((lp2663
g52
atp2664
Rp2665
sS'diphenhydramine_tannate'
p2666
g2
((lp2667
g52
atp2668
Rp2669
sS'cpm_phenyleph_hcl'
p2670
g2
((lp2671
g52
atp2672
Rp2673
sS'ondansetron'
p2674
g2
((lp2675
g194
atp2676
Rp2677
sS'ciclopirox_olamine'
p2678
g2
((lp2679
g509
atp2680
Rp2681
sS'metformin_hydrochloride'
p2682
g2
((lp2683
g131
atp2684
Rp2685
sS'efavirenz_emtricitabine_tenofovir_disoproxil'
p2686
g2
((lp2687
g964
atp2688
Rp2689
sS'conjugated_estrogens'
p2690
g2
((lp2691
g674
atp2692
Rp2693
sS'ketorolac_tromethamine'
p2694
g2
((lp2695
g231
ag4
atp2696
Rp2697
sS'fentanyl'
p2698
g2
((lp2699
g52
atp2700
Rp2701
sS'ingenol_mebutate'
p2702
g2
((lp2703
tp2704
Rp2705
sS'niacin_simvastatin'
p2706
g2
((lp2707
g91
atp2708
Rp2709
sS'calcium_acetate'
p2710
g2
((lp2711
g92
atp2712
Rp2713
sS'levocarnitine'
p2714
g2
((lp2715
g92
atp2716
Rp2717
sS'doxycycline'
p2718
g2
((lp2719
g9
ag154
atp2720
Rp2721
sS'aspirin_carisoprodol_codeine_phosphate'
p2722
g2
((lp2723
g52
atp2724
Rp2725
sS'desvenlafaxine_succinate'
p2726
g2
((lp2727
g68
atp2728
Rp2729
sS'follitropin_alfa'
p2730
g2
((lp2731
g384
atp2732
Rp2733
sS'pentoxifylline'
p2734
g2
((lp2735
tp2736
Rp2737
sS'follicle_stimulating_hormone_luteinizing_hor'
p2738
g2
((lp2739
g384
atp2740
Rp2741
sS'oxaprozin'
p2742
g2
((lp2743
g231
atp2744
Rp2745
sS'estradiol__micronized'
p2746
g2
((lp2747
tp2748
Rp2749
sS'hydrocortisone_probutate'
p2750
g2
((lp2751
g4
atp2752
Rp2753
sS'doxazosin_mesylate'
p2754
g2
((lp2755
g618
atp2756
Rp2757
sS'potassium_citrate'
p2758
g2
((lp2759
g2170
atp2760
Rp2761
sS'hydrochlorothiazide_metoprolol_tartrate'
p2762
g2
((lp2763
g140
atp2764
Rp2765
sS'lithium_carbonate'
p2766
g2
((lp2767
tp2768
Rp2769
sS'trandolapril'
p2770
g2
((lp2771
g208
atp2772
Rp2773
sS'flecainide_acetate'
p2774
g2
((lp2775
g623
atp2776
Rp2777
sS'fosinopril_sodium_hydrochlorothiazide'
p2778
g2
((lp2779
g208
atp2780
Rp2781
sS'captopril_hydrochlorothiazide'
p2782
g2
((lp2783
g208
atp2784
Rp2785
sS'rizatriptan_benzoate'
p2786
g2
((lp2787
g1284
atp2788
Rp2789
sS'zonisamide'
p2790
g2
((lp2791
g518
atp2792
Rp2793
sS'amlodipine_besylate_benazepril_hydrochloride'
p2794
g2
((lp2795
g544
atp2796
Rp2797
sS'acetic_acid_antipyrine_benzocaine_policosano'
p2798
g2
((lp2799
g231
atp2800
Rp2801
sS'metronidazole'
p2802
g2
((lp2803
g411
ag154
atp2804
Rp2805
sS'ticlopidine_hydrochloride'
p2806
g2
((lp2807
g1187
atp2808
Rp2809
sS'adapalene_benzoyl_peroxide'
p2810
g2
((lp2811
g154
atp2812
Rp2813
sS'desoximetasone'
p2814
g2
((lp2815
g4
atp2816
Rp2817
sS'levetiracetam'
p2818
g2
((lp2819
g518
atp2820
Rp2821
sS'cefixime'
p2822
g2
((lp2823
g446
atp2824
Rp2825
sS'phenytoin'
p2826
g2
((lp2827
tp2828
Rp2829
sS'orlistat'
p2830
g2
((lp2831
g62
atp2832
Rp2833
sS'interferon_beta-1b;sodium_chloride'
p2834
g2
((lp2835
g2145
atp2836
Rp2837
sS'ethinyl_estradiol_etonogestrel'
p2838
g2
((lp2839
g674
atp2840
Rp2841
sS'besifloxacin_hydrochloride'
p2842
g2
((lp2843
g9
atp2844
Rp2845
sS'dextromethorphan_hydrobromide_guaifenesin'
p2846
g2
((lp2847
g52
atp2848
Rp2849
sS'clopidogrel_hydrogen_sulfate'
p2850
g2
((lp2851
g1187
atp2852
Rp2853
sS'carbamazepine'
p2854
g2
((lp2855
g518
atp2856
Rp2857
sS'clindamycin_hydrochloride'
p2858
g2
((lp2859
g9
atp2860
Rp2861
sS'guaifenesin_potassium_guaiacolsulfonate'
p2862
g2
((lp2863
g52
atp2864
Rp2865
sS'chlorpheniramine_maleate_codeine_phosphate'
p2866
g2
((lp2867
g52
atp2868
Rp2869
sS'ethinyl_estradiol_norgestimate_placebo'
p2870
g2
((lp2871
g674
atp2872
Rp2873
sS'pyridostigmine_bromide'
p2874
g2
((lp2875
g321
atp2876
Rp2877
sS'carvedilol'
p2878
g2
((lp2879
g140
atp2880
Rp2881
sS'oxycodone_hydrochloride'
p2882
g2
((lp2883
g52
atp2884
Rp2885
sS'brompheniramine_tan_dm_tan_pse_tan'
p2886
g2
((lp2887
g52
atp2888
Rp2889
sS'buprenorphine'
p2890
g2
((lp2891
g1767
atp2892
Rp2893
sS'prasugrel_hydrochloride'
p2894
g2
((lp2895
g1187
atp2896
Rp2897
sS'lamotrigine'
p2898
g2
((lp2899
g518
atp2900
Rp2901
sS'antibacterial_anti-inflammatory_combination'
p2902
g2
((lp2903
g82
ag4
atp2904
Rp2905
sS'valganciclovir_hydrochloride'
p2906
g2
((lp2907
g964
atp2908
Rp2909
sS'codeine_sulfate'
p2910
g2
((lp2911
g52
atp2912
Rp2913
sS'dirithromycin'
p2914
g2
((lp2915
g9
atp2916
Rp2917
sS'desogestrel_ethinyl_estradiol'
p2918
g2
((lp2919
g608
atp2920
Rp2921
sS'cyclobenzaprine_hydrochloride'
p2922
g2
((lp2923
g406
atp2924
Rp2925
sS'carbetapentane_tannate_pseudoephedrine_tanna'
p2926
g2
((lp2927
g52
atp2928
Rp2929
sS'sulfasalazine'
p2930
g2
((lp2931
tp2932
Rp2933
sS'terazosin_hydrochloride'
p2934
g2
((lp2935
g618
atp2936
Rp2937
sS'spironolactone'
p2938
g2
((lp2939
g764
atp2940
Rp2941
sS'hydromorphone_hydrochloride'
p2942
g2
((lp2943
g52
atp2944
Rp2945
sS'desloratadine'
p2946
g2
((lp2947
g52
atp2948
Rp2949
sS'nisoldipine'
p2950
g2
((lp2951
g544
atp2952
Rp2953
sS'fenofibric_acid'
p2954
g2
((lp2955
g91
atp2956
Rp2957
sS'clindamycin_phosphate_tretinoin'
p2958
g2
((lp2959
g9
atp2960
Rp2961
sS'calcitonin__salmon_'
p2962
g2
((lp2963
tp2964
Rp2965
sS'levothyroxine_sodium_liothyronine_sodium'
p2966
g2
((lp2967
g1401
atp2968
Rp2969
sS'dexlansoprazole'
p2970
g2
((lp2971
g797
atp2972
Rp2973
sS'fluticasone_propionate_salmeterol_xinafoate'
p2974
g2
((lp2975
g4
atp2976
Rp2977
sS'fosinopril_sodium'
p2978
g2
((lp2979
g208
atp2980
Rp2981
sS'doxycycline_hyclate'
p2982
g2
((lp2983
g9
atp2984
Rp2985
sS'azathioprine'
p2986
g2
((lp2987
g18
atp2988
Rp2989
sS'malathion'
p2990
g2
((lp2991
g691
atp2992
Rp2993
sS'diaphragm'
p2994
g2
((lp2995
tp2996
Rp2997
sS'prazosin_hydrochloride'
p2998
g2
((lp2999
g618
atp3000
Rp3001
sS'bacitracin'
p3002
g2
((lp3003
g9
atp3004
Rp3005
sS'hydrochlorothiazide_telmisartan'
p3006
g2
((lp3007
g33
atp3008
Rp3009
sS'clindamycin_palmitate_hydrochloride'
p3010
g2
((lp3011
g9
atp3012
Rp3013
sS'dm_hydrobrom_gg_phenyleph_hcl'
p3014
g2
((lp3015
g52
atp3016
Rp3017
sS'cefditoren_pivoxil'
p3018
g2
((lp3019
g446
atp3020
Rp3021
sS'acetylcysteine_l-methylfolate_methylcobalami'
p3022
g2
((lp3023
g92
atp3024
Rp3025
sS'dm_hydrobrom_promethazine_hcl'
p3026
g2
((lp3027
g52
atp3028
Rp3029
sS'antipyrine_benzocaine_phenylephrine_hydrochl'
p3030
g2
((lp3031
g248
atp3032
Rp3033
sS'ethinyl_estradiol_norelgestromin'
p3034
g2
((lp3035
g608
atp3036
Rp3037
sS'captopril'
p3038
g2
((lp3039
g208
atp3040
Rp3041
sS'zileuton'
p3042
g2
((lp3043
g42
atp3044
Rp3045
sS'methazolamide'
p3046
g2
((lp3047
tp3048
Rp3049
sS'isotretinoin'
p3050
g2
((lp3051
tp3052
Rp3053
sS'clindamycin_phosphate'
p3054
g2
((lp3055
g9
atp3056
Rp3057
sS'dofetilide'
p3058
g2
((lp3059
g623
atp3060
Rp3061
sS'aspirin_caffeine_orphenadrine_citrate'
p3062
g2
((lp3063
tp3064
Rp3065
sS'medical_food'
p3066
g2
((lp3067
g47
ag231
ag92
ag964
ag523
ag68
ag544
ag208
ag554
ag62
ag406
ag140
ag806
ag91
ag131
ag518
ag52
ag1153
atp3068
Rp3069
sS'dicyclomine_hydrochloride'
p3070
g2
((lp3071
g544
ag347
atp3072
Rp3073
sS'prochlorperazine_maleate'
p3074
g2
((lp3075
g194
ag261
atp3076
Rp3077
sS'azelastine_hydrochloride'
p3078
g2
((lp3079
g463
atp3080
Rp3081
sS'sirolimus'
p3082
g2
((lp3083
g18
atp3084
Rp3085
sS'doxepin_hydrochloride'
p3086
g2
((lp3087
g248
ag68
ag1153
atp3088
Rp3089
sS'atenolol_chlorthalidone'
p3090
g2
((lp3091
g140
atp3092
Rp3093
sS'desonide'
p3094
g2
((lp3095
g4
atp3096
Rp3097
sS'betamethasone_valerate'
p3098
g2
((lp3099
g4
atp3100
Rp3101
sS'brinzolamide'
p3102
g2
((lp3103
g77
atp3104
Rp3105
sS'docusate_sodium'
p3106
g2
((lp3107
g52
atp3108
Rp3109
sS'varicella_virus_vaccine'
p3110
g2
((lp3111
g221
atp3112
Rp3113
sS'estradiol'
p3114
g2
((lp3115
g674
ag62
atp3116
Rp3117
sS'peginterferon_alfa-2b'
p3118
g2
((lp3119
tp3120
Rp3121
sS'budesonide'
p3122
g2
((lp3123
g4
atp3124
Rp3125
sS'misoprostol'
p3126
g2
((lp3127
g797
atp3128
Rp3129
sS'fluvoxamine_maleate'
p3130
g2
((lp3131
g68
atp3132
Rp3133
sS'chlorpheniramine_tannate_pseudoephedrine_tan'
p3134
g2
((lp3135
g52
atp3136
Rp3137
sS'bisoprolol_fumarate'
p3138
g2
((lp3139
g140
atp3140
Rp3141
sS'flurbiprofen'
p3142
g2
((lp3143
g231
atp3144
Rp3145
sS'chlorothiazide'
p3146
g2
((lp3147
g28
atp3148
Rp3149
sS'minocycline_hydrochloride'
p3150
g2
((lp3151
g9
atp3152
Rp3153
sS'sumatriptan'
p3154
g2
((lp3155
g1284
atp3156
Rp3157
sS'sevelamer_carbonate'
p3158
g2
((lp3159
g126
atp3160
Rp3161
sS'meperidine_hydrochloride'
p3162
g2
((lp3163
g52
atp3164
Rp3165
sS'dapsone'
p3166
g2
((lp3167
tp3168
Rp3169
sS'estrogen_progestin_folate_combination'
p3170
g2
((lp3171
g608
atp3172
Rp3173
sS'calcium_carbonate;risedronate_sodium'
p3174
g2
((lp3175
g62
atp3176
Rp3177
sS'modafinil'
p3178
g2
((lp3179
g636
atp3180
Rp3181
sS'pimecrolimus'
p3182
g2
((lp3183
g62
atp3184
Rp3185
sS'miconazole_nitrate_petrolatum__white_zinc_ox'
p3186
g2
((lp3187
g509
atp3188
Rp3189
sS'esterified_estrogens'
p3190
g2
((lp3191
g674
atp3192
Rp3193
sS'rosiglitazone_maleate'
p3194
g2
((lp3195
g131
atp3196
Rp3197
sS'diphenhydramine_hydrochloride'
p3198
g2
((lp3199
g248
ag52
atp3200
Rp3201
sS'flunisolide'
p3202
g2
((lp3203
g4
atp3204
Rp3205
sS'ammonium_lactate;halobetasol_propionate'
p3206
g2
((lp3207
g179
ag4
atp3208
Rp3209
sS'meclizine_hydrochloride'
p3210
g2
((lp3211
g194
atp3212
Rp3213
sS'amitriptyline_hydrochloride'
p3214
g2
((lp3215
g68
atp3216
Rp3217
sS'terbutaline_sulfate'
p3218
g2
((lp3219
g52
atp3220
Rp3221
sS'leucovorin_calcium'
p3222
g2
((lp3223
g62
ag92
atp3224
Rp3225
sS'liraglutide'
p3226
g2
((lp3227
g131
atp3228
Rp3229
sS'olanzapine'
p3230
g2
((lp3231
g261
atp3232
Rp3233
sS'ipratropium_bromide'
p3234
g2
((lp3235
g645
atp3236
Rp3237
sS'rabeprazole_sodium'
p3238
g2
((lp3239
g797
atp3240
Rp3241
sS'sulfanilamide'
p3242
g2
((lp3243
g154
atp3244
Rp3245
sS'diphenhydramine_hcl_hydrocod_bit_phenyleph_h'
p3246
g2
((lp3247
g52
atp3248
Rp3249
sS'phendimetrazine_tartrate'
p3250
g2
((lp3251
g636
atp3252
Rp3253
sS'isradipine'
p3254
g2
((lp3255
g544
atp3256
Rp3257
sS'sulindac'
p3258
g2
((lp3259
g231
atp3260
Rp3261
sS'linagliptin'
p3262
g2
((lp3263
g131
atp3264
Rp3265
sS'rosuvastatin_calcium'
p3266
g2
((lp3267
g91
atp3268
Rp3269
sS'loracarbef'
p3270
g2
((lp3271
tp3272
Rp3273
sS'bisoprolol_fumarate_hydrochlorothiazide'
p3274
g2
((lp3275
g140
atp3276
Rp3277
sS'hydrochlorothiazide_valsartan'
p3278
g2
((lp3279
g33
atp3280
Rp3281
sS'zafirlukast'
p3282
g2
((lp3283
g42
atp3284
Rp3285
sS'almotriptan_malate'
p3286
g2
((lp3287
g1284
atp3288
Rp3289
sS'bpm_codeine_phos_pse_hcl'
p3290
g2
((lp3291
g52
atp3292
Rp3293
sS'rimexolone'
p3294
g2
((lp3295
g4
atp3296
Rp3297
sS'somatropin__e-coli_derived'
p3298
g2
((lp3299
tp3300
Rp3301
sS'eplerenone'
p3302
g2
((lp3303
g33
atp3304
Rp3305
sS'acetaminophen_phenyltoloxamine_citrate'
p3306
g2
((lp3307
g52
ag554
atp3308
Rp3309
sS'needle__hypodermic'
p3310
g2
((lp3311
g839
atp3312
Rp3313
sS'ampicillin'
p3314
g2
((lp3315
g429
atp3316
Rp3317
sS'arformoterol_tartrate'
p3318
g2
((lp3319
g52
atp3320
Rp3321
sS'hydrocortisone__micronized'
p3322
g2
((lp3323
tp3324
Rp3325
sS'timolol'
p3326
g2
((lp3327
g77
atp3328
Rp3329
sS'thyroid'
p3330
g2
((lp3331
g1401
atp3332
Rp3333
sS'ciclesonide'
p3334
g2
((lp3335
g4
atp3336
Rp3337
sS'flurandrenolide'
p3338
g2
((lp3339
g4
atp3340
Rp3341
sS'influenza_virus_vaccine__inactivated'
p3342
g2
((lp3343
g221
atp3344
Rp3345
sS'insulin_glulisine'
p3346
g2
((lp3347
g184
atp3348
Rp3349
sS'cefadroxil'
p3350
g2
((lp3351
g446
atp3352
Rp3353
sS'antipyrine_benzocaine'
p3354
g2
((lp3355
g248
ag77
atp3356
Rp3357
sS'chloroquine_phosphate'
p3358
g2
((lp3359
g549
atp3360
Rp3361
sS'ropinirole_hydrochloride'
p3362
g2
((lp3363
g420
atp3364
Rp3365
sS'erythromycin_ethylsuccinate_sulfisoxazole_ac'
p3366
g2
((lp3367
g9
atp3368
Rp3369
sS'dexchlorpheniramine_tan_pse_tan'
p3370
g2
((lp3371
g52
atp3372
Rp3373
sS'acetaminophen_pentazocine_hydrochloride'
p3374
g2
((lp3375
g1767
atp3376
Rp3377
sS'guaifenesin'
p3378
g2
((lp3379
g52
atp3380
Rp3381
sS'chloral_hydrate'
p3382
g2
((lp3383
g1153
atp3384
Rp3385
sS'felodipine'
p3386
g2
((lp3387
g544
atp3388
Rp3389
sS'guaifenesin_phenylephrine_hydrochloride'
p3390
g2
((lp3391
g52
atp3392
Rp3393
sS'bi_subsalicylate;metronidazole;tetracycline_'
p3394
g2
((lp3395
g411
atp3396
Rp3397
sS'glyburide'
p3398
g2
((lp3399
g199
atp3400
Rp3401
sS'naproxen'
p3402
g2
((lp3403
g231
atp3404
Rp3405
sS'capecitabine'
p3406
g2
((lp3407
g189
atp3408
Rp3409
sS'dienogest_estradiol_valerate_placebo'
p3410
g2
((lp3411
g674
atp3412
Rp3413
sS'prednisolone'
p3414
g2
((lp3415
g4
atp3416
Rp3417
sS'fluorouracil'
p3418
g2
((lp3419
g189
atp3420
Rp3421
sS'loperamide_hydrochloride'
p3422
g2
((lp3423
g496
atp3424
Rp3425
sS'hydroxyzine_pamoate'
p3426
g2
((lp3427
g1153
atp3428
Rp3429
sS'hydroxychloroquine_sulfate'
p3430
g2
((lp3431
g549
atp3432
Rp3433
sS'zolmitriptan'
p3434
g2
((lp3435
g1284
atp3436
Rp3437
sS'carbidopa_entacapone_levodopa'
p3438
g2
((lp3439
g420
atp3440
Rp3441
sS'multivitamin__iron__and_fluoride'
p3442
g2
((lp3443
g92
atp3444
Rp3445
sS'pantoprazole_sodium'
p3446
g2
((lp3447
g797
atp3448
Rp3449
sS'diltiazem_hydrochloride'
p3450
g2
((lp3451
g544
atp3452
Rp3453
sS'cpm_dihydrocodeine_bitartrate_pse_hcl'
p3454
g2
((lp3455
g52
atp3456
Rp3457
sS'ferrous_fum_folic_acid_vit_b12_vit_c'
p3458
g2
((lp3459
g92
atp3460
Rp3461
sS'glyburide_metformin_hydrochloride'
p3462
g2
((lp3463
g199
atp3464
Rp3465
sS'syringe_and_needle'
p3466
g2
((lp3467
g839
atp3468
Rp3469
sS'darifenacin_hydrobromide'
p3470
g2
((lp3471
g23
atp3472
Rp3473
sS'miconazole_nitrate'
p3474
g2
((lp3475
g509
atp3476
Rp3477
sS'fenofibrate__micronized'
p3478
g2
((lp3479
g91
atp3480
Rp3481
sS'rivastigmine'
p3482
g2
((lp3483
g321
atp3484
Rp3485
sS'lanthanum_carbonate'
p3486
g2
((lp3487
g126
atp3488
Rp3489
sS'choline_magnesium_trisalicylate'
p3490
g2
((lp3491
g554
atp3492
Rp3493
sS'imipramine_pamoate'
p3494
g2
((lp3495
g68
atp3496
Rp3497
sS'chlorpheniramine_polistirex_hydrocodone_poli'
p3498
g2
((lp3499
g52
atp3500
Rp3501
sS'aspirin_butalbital_caffeine_codeine_phosphat'
p3502
g2
((lp3503
g52
ag554
atp3504
Rp3505
sS'oxcarbazepine'
p3506
g2
((lp3507
g518
atp3508
Rp3509
sS'methotrexate_sodium'
p3510
g2
((lp3511
g189
atp3512
Rp3513
sS'acetaminophen_codeine_phosphate'
p3514
g2
((lp3515
g52
atp3516
Rp3517
sS'prednisolone_sodium_phosphate'
p3518
g2
((lp3519
g4
atp3520
Rp3521
sS'testosterone_propionate'
p3522
g2
((lp3523
g613
atp3524
Rp3525
sS'fluocinolone_acetonide_hydroquinone_tretinoi'
p3526
g2
((lp3527
g4
atp3528
Rp3529
sS'eflornithine_hydrochloride'
p3530
g2
((lp3531
g62
atp3532
Rp3533
sS'hydrocortisone_acetate_pramoxine_hydrochlori'
p3534
g2
((lp3535
g4
atp3536
Rp3537
sS'interferon_beta-1a'
p3538
g2
((lp3539
g2145
atp3540
Rp3541
sS'castor_oil_peru_balsam_trypsin'
p3542
g2
((lp3543
g62
ag401
atp3544
Rp3545
sS'sotalol_hydrochloride'
p3546
g2
((lp3547
g140
atp3548
Rp3549
sS'hpv_vac_recomb_quadrivalent__types_6__11__16'
p3550
g2
((lp3551
g221
atp3552
Rp3553
sS'econazole_nitrate'
p3554
g2
((lp3555
g509
atp3556
Rp3557
sS'betamethasone_dipropionate__augmented'
p3558
g2
((lp3559
g4
atp3560
Rp3561
sS'loteprednol_etabonate_tobramycin'
p3562
g2
((lp3563
g82
atp3564
Rp3565
sS'prednicarbate'
p3566
g2
((lp3567
g4
atp3568
Rp3569
sS'dexamethasone_sodium_phosphate'
p3570
g2
((lp3571
g4
atp3572
Rp3573
sS'codeine_phos_phenyleph_hcl_promethazine_hcl'
p3574
g2
((lp3575
g52
atp3576
Rp3577
sS'loratadine_pseudoephedrine_sulfate'
p3578
g2
((lp3579
g52
atp3580
Rp3581
sS'needle'
p3582
g2
((lp3583
g839
atp3584
Rp3585
sS'interferon_beta-1b'
p3586
g2
((lp3587
g2145
atp3588
Rp3589
sS'nefazodone_hydrochloride'
p3590
g2
((lp3591
g68
atp3592
Rp3593
sS'amiloride_hydrochloride'
p3594
g2
((lp3595
g764
atp3596
Rp3597
sS'chlorpheniramine_maleate_methscopolamine_nit'
p3598
g2
((lp3599
g52
ag645
ag463
atp3600
Rp3601
sS'multivitamin_and_minerals'
p3602
g2
((lp3603
g62
ag92
atp3604
Rp3605
sS'oxazepam'
p3606
g2
((lp3607
g47
atp3608
Rp3609
sS'hydrocod_bit_phenyleph_hcl_pyril_mal'
p3610
g2
((lp3611
g52
atp3612
Rp3613
sS'etodolac'
p3614
g2
((lp3615
g231
atp3616
Rp3617
sS'cabergoline'
p3618
g2
((lp3619
g62
atp3620
Rp3621
sS'ibuprofen'
p3622
g2
((lp3623
g231
atp3624
Rp3625
sS'hydrocod_bit_pse_hcl'
p3626
g2
((lp3627
g52
atp3628
Rp3629
sS'ciprofloxacin_ciprofloxacin_hydrochloride'
p3630
g2
((lp3631
g9
atp3632
Rp3633
sS'pentosan_polysulfate_sodium'
p3634
g2
((lp3635
g62
atp3636
Rp3637
sS'allopurinol'
p3638
g2
((lp3639
g109
atp3640
Rp3641
sS'nedocromil_sodium'
p3642
g2
((lp3643
g77
atp3644
Rp3645
sS'bupropion_hydrobromide'
p3646
g2
((lp3647
g68
atp3648
Rp3649
sS'salsalate'
p3650
g2
((lp3651
g554
atp3652
Rp3653
sS'imiquimod'
p3654
g2
((lp3655
g62
atp3656
Rp3657
sS'ethosuximide'
p3658
g2
((lp3659
tp3660
Rp3661
sS'rofecoxib'
p3662
g2
((lp3663
g231
atp3664
Rp3665
sS'amcinonide'
p3666
g2
((lp3667
g4
atp3668
Rp3669
sS'cream__multi_ingredient'
p3670
g2
((lp3671
g406
ag248
ag179
atp3672
Rp3673
sS'bpm_carbetapentane_cit_phenyleph_hcl'
p3674
g2
((lp3675
g52
atp3676
Rp3677
sS'multivitamin_and_minerals;nutriceutical'
p3678
g2
((lp3679
g92
atp3680
Rp3681
sS'paroxetine_hydrochloride'
p3682
g2
((lp3683
g68
atp3684
Rp3685
sS'valdecoxib'
p3686
g2
((lp3687
g231
atp3688
Rp3689
sS'nitrofurantoin__macrocrystals'
p3690
g2
((lp3691
g342
atp3692
Rp3693
sS'potassium_bicarbonate'
p3694
g2
((lp3695
g2170
atp3696
Rp3697
sS'carbetapentane_cit_gg_phenyleph_hcl'
p3698
g2
((lp3699
g52
atp3700
Rp3701
sS'propylthiouracil'
p3702
g2
((lp3703
tp3704
Rp3705
sS'hydroxyurea'
p3706
g2
((lp3707
g189
atp3708
Rp3709
sS'acetone_test'
p3710
g2
((lp3711
g839
atp3712
Rp3713
sS'nebivolol_hydrochloride'
p3714
g2
((lp3715
g140
atp3716
Rp3717
sS'drospirenone_estradiol'
p3718
g2
((lp3719
g674
atp3720
Rp3721
sS'golimumab'
p3722
g2
((lp3723
g18
atp3724
Rp3725
sS'propafenone_hydrochloride'
p3726
g2
((lp3727
g623
atp3728
Rp3729
sS'clarithromycin'
p3730
g2
((lp3731
g9
atp3732
Rp3733
sS'multivitamin_and_fluoride'
p3734
g2
((lp3735
g1964
ag92
atp3736
Rp3737
sS'flavoxate_hydrochloride'
p3738
g2
((lp3739
g23
atp3740
Rp3741
sS'famotidine_ibuprofen'
p3742
g2
((lp3743
g231
atp3744
Rp3745
sS'hydroxyprogesterone_caproate'
p3746
g2
((lp3747
g62
atp3748
Rp3749
sS'danazol'
p3750
g2
((lp3751
g613
atp3752
Rp3753
sS'ondansetron_hydrochloride'
p3754
g2
((lp3755
g194
atp3756
Rp3757
sS'peginterferon_alfa-2a'
p3758
g2
((lp3759
tp3760
Rp3761
sS'voriconazole'
p3762
g2
((lp3763
g509
atp3764
Rp3765
sS'clemastine_fumarate'
p3766
g2
((lp3767
g52
atp3768
Rp3769
sS'methscopolamine_bromide'
p3770
g2
((lp3771
g347
atp3772
Rp3773
sS'cyanocobalamin'
p3774
g2
((lp3775
g92
atp3776
Rp3777
sS'fosfomycin_tromethamine'
p3778
g2
((lp3779
g342
atp3780
Rp3781
sS'alclometasone_dipropionate'
p3782
g2
((lp3783
g4
atp3784
Rp3785
sS'foam__multi_ingredient'
p3786
g2
((lp3787
g179
atp3788
Rp3789
sS'dronedarone_hydrochloride'
p3790
g2
((lp3791
g623
atp3792
Rp3793
sS'dabigatran_etexilate_mesylate'
p3794
g2
((lp3795
g312
atp3796
Rp3797
sS'cefaclor'
p3798
g2
((lp3799
g446
atp3800
Rp3801
sS'lidocaine'
p3802
g2
((lp3803
g248
atp3804
Rp3805
sS'caffeine_ergotamine_tartrate'
p3806
g2
((lp3807
tp3808
Rp3809
sS'conjugated_estrogens_synthetic_b'
p3810
g2
((lp3811
g674
atp3812
Rp3813
sS'eprosartan_mesylate'
p3814
g2
((lp3815
g33
atp3816
Rp3817
sS'ethambutol_hydrochloride'
p3818
g2
((lp3819
g226
atp3820
Rp3821
sS'antipyrine_benzocaine_policosanol'
p3822
g2
((lp3823
g231
atp3824
Rp3825
sS'rimantadine_hydrochloride'
p3826
g2
((lp3827
g964
atp3828
Rp3829
sS'desogestrel_ethinyl_estradiol;ethinyl_estrad'
p3830
g2
((lp3831
g608
atp3832
Rp3833
sS'emtricitabine_tenofovir_disoproxil_fumarate'
p3834
g2
((lp3835
g964
atp3836
Rp3837
sS'testosterone'
p3838
g2
((lp3839
g613
atp3840
Rp3841
sS'alcaftadine'
p3842
g2
((lp3843
g463
atp3844
Rp3845
sS'cpm_dihydrocodeine_bitartrate_phenyleph_hcl'
p3846
g2
((lp3847
g52
atp3848
Rp3849
sS'ketoprofen'
p3850
g2
((lp3851
g231
atp3852
Rp3853
sS'fenofibrate'
p3854
g2
((lp3855
g91
atp3856
Rp3857
sS'bimatoprost'
p3858
g2
((lp3859
g77
atp3860
Rp3861
sS'finasteride'
p3862
g2
((lp3863
g62
atp3864
Rp3865
sS'peg_electrolyte_lavage_solution'
p3866
g2
((lp3867
g2375
ag797
ag57
atp3868
Rp3869
sS'scopolamine'
p3870
g2
((lp3871
g347
atp3872
Rp3873
sS'methscopolamine_nitrate_pse_hcl'
p3874
g2
((lp3875
g52
atp3876
Rp3877
sS'metoprolol_succinate'
p3878
g2
((lp3879
g140
atp3880
Rp3881
sS'fluoxetine_hydrochloride'
p3882
g2
((lp3883
g68
atp3884
Rp3885
sS'ciprofloxacin_hydrochloride'
p3886
g2
((lp3887
g9
atp3888
Rp3889
sS'lactulose'
p3890
g2
((lp3891
tp3892
Rp3893
sS'polyethylene_glycol_3350'
p3894
g2
((lp3895
g2375
atp3896
Rp3897
sS'hydrocortisone_iodoquinol'
p3898
g2
((lp3899
g4
ag509
atp3900
Rp3901
sS'thiothixene'
p3902
g2
((lp3903
g261
atp3904
Rp3905
sS'atenolol'
p3906
g2
((lp3907
g140
atp3908
Rp3909
sS'methylergonovine_maleate'
p3910
g2
((lp3911
tp3912
Rp3913
sS'carbetapentane_tannate_chlorpheniramine_tann'
p3914
g2
((lp3915
g52
atp3916
Rp3917
sS'cyclophosphamide'
p3918
g2
((lp3919
g189
atp3920
Rp3921
sS'dihydroergotamine_mesylate'
p3922
g2
((lp3923
tp3924
Rp3925
sS'chorionic_gonadotropin'
p3926
g2
((lp3927
g384
atp3928
Rp3929
sS'fesoterodine_fumarate'
p3930
g2
((lp3931
g23
atp3932
Rp3933
sS'prednisolone_acetate'
p3934
g2
((lp3935
g4
atp3936
Rp3937
sS'dorzolamide_hydrochloride_timolol_maleate'
p3938
g2
((lp3939
g77
atp3940
Rp3941
sS'adapalene'
p3942
g2
((lp3943
g1166
atp3944
Rp3945
sS'cpm_hydrocod_bit_phenyleph_hcl'
p3946
g2
((lp3947
g52
atp3948
Rp3949
sS'lidocaine_hydrochloride'
p3950
g2
((lp3951
g839
ag248
ag623
atp3952
Rp3953
sS'diclofenac_sodium_misoprostol'
p3954
g2
((lp3955
g231
atp3956
Rp3957
sS'mestranol_norethindrone'
p3958
g2
((lp3959
g608
atp3960
Rp3961
sS'bromfenac_sodium'
p3962
g2
((lp3963
g231
ag4
atp3964
Rp3965
sS'vancomycin_hydrochloride'
p3966
g2
((lp3967
g9
atp3968
Rp3969
sS'cpm_tan_dm_tan_pse_tan'
p3970
g2
((lp3971
g52
atp3972
Rp3973
sS'butenafine_hydrochloride'
p3974
g2
((lp3975
g509
atp3976
Rp3977
sS'benzoyl_peroxide'
p3978
g2
((lp3979
g154
atp3980
Rp3981
sS'colchicine'
p3982
g2
((lp3983
g109
atp3984
Rp3985
sS'perphenazine'
p3986
g2
((lp3987
g63
ag261
atp3988
Rp3989
sS'homatropine_methylbromide_hydrocodone_bitart'
p3990
g2
((lp3991
g52
atp3992
Rp3993
sS'thyrotropin_alfa'
p3994
g2
((lp3995
tp3996
Rp3997
sS'aloe_hydrocortisone_acetate_iodoquinol'
p3998
g2
((lp3999
g4
atp4000
Rp4001
sS'glucose__blood_test'
p4002
g2
((lp4003
g839
atp4004
Rp4005
sS'buspirone_hydrochloride'
p4006
g2
((lp4007
g1153
atp4008
Rp4009
sS'atovaquone_proguanil_hydrochloride'
p4010
g2
((lp4011
g411
atp4012
Rp4013
sS'hydrochlorothiazide_triamterene'
p4014
g2
((lp4015
g764
atp4016
Rp4017
sS'levomefolate_calcium'
p4018
g2
((lp4019
g92
atp4020
Rp4021
sS'alendronate_sodium_cholecalciferol'
p4022
g2
((lp4023
g62
atp4024
Rp4025
sS'apap_cpm_phenyleph_hcl_phenyltoloxamine_cit'
p4026
g2
((lp4027
g52
atp4028
Rp4029
sS'ganirelix_acetate'
p4030
g2
((lp4031
tp4032
Rp4033
sS'piroxicam'
p4034
g2
((lp4035
g231
atp4036
Rp4037
sS'ranitidine_hydrochloride'
p4038
g2
((lp4039
g523
atp4040
Rp4041
sS'apap_dichloralphenazone_isometheptene_mucate'
p4042
g2
((lp4043
g52
atp4044
Rp4045
sS'rifaximin'
p4046
g2
((lp4047
g9
atp4048
Rp4049
sS'k_phos_na_phos__dibasic_na_phos__monobasic'
p4050
g2
((lp4051
tp4052
Rp4053
sS'k_cl_na_bicarb_na_cl_polyethylene_glycol_335'
p4054
g2
((lp4055
g57
atp4056
Rp4057
sS'ferrous_fum_folic_acid_if_vit_b12_vit_c'
p4058
g2
((lp4059
g92
atp4060
Rp4061
sS'acamprosate_calcium'
p4062
g2
((lp4063
g62
atp4064
Rp4065
sS'chlorophyllin_copper_complex_papain_urea'
p4066
g2
((lp4067
g401
atp4068
Rp4069
sS'lorazepam'
p4070
g2
((lp4071
g47
atp4072
Rp4073
sS'naloxone_hydrochloride_pentazocine_hydrochlo'
p4074
g2
((lp4075
g1767
atp4076
Rp4077
sS'levomefolate_ca_methylcobalamin_pyridoxal_ph'
p4078
g2
((lp4079
g92
atp4080
Rp4081
sS'codeine_phosphate_guaifenesin'
p4082
g2
((lp4083
g52
atp4084
Rp4085
sS'metformin_hydrochloride_pioglitazone_hydroch'
p4086
g2
((lp4087
g131
atp4088
Rp4089
sS'mycophenolate_mofetil'
p4090
g2
((lp4091
g18
atp4092
Rp4093
sS'triamterene'
p4094
g2
((lp4095
g764
atp4096
Rp4097
sS'betamethasone_dipropionate_clotrimazole'
p4098
g2
((lp4099
g509
atp4100
Rp4101
sS'amiloride_hydrochloride_hydrochlorothiazide'
p4102
g2
((lp4103
g764
atp4104
Rp4105
sS'quinine_sulfate'
p4106
g2
((lp4107
g623
ag549
atp4108
Rp4109
sS'carbetapentane_cit_k_guai_phenyleph_hcl'
p4110
g2
((lp4111
g52
atp4112
Rp4113
sS'cpm_methscopolamine_nitrate_pse_hcl_phenylep'
p4114
g2
((lp4115
g52
atp4116
Rp4117
sS'bpm_dihydrocodeine_bitartrate_phenyleph_hcl'
p4118
g2
((lp4119
g52
atp4120
Rp4121
sS'ribavirin'
p4122
g2
((lp4123
g964
atp4124
Rp4125
sS'hydrocortisone'
p4126
g2
((lp4127
g4
atp4128
Rp4129
sS'carbidopa_levodopa'
p4130
g2
((lp4131
g62
ag420
atp4132
Rp4133
sS'ursodiol'
p4134
g2
((lp4135
tp4136
Rp4137
sS'chlorpheniramine_tannate_phenylephrine_tanna'
p4138
g2
((lp4139
g52
atp4140
Rp4141
sS'methylphenidate_hydrochloride'
p4142
g2
((lp4143
g636
atp4144
Rp4145
sS'nadolol'
p4146
g2
((lp4147
g140
atp4148
Rp4149
sS'sitagliptin_phosphate'
p4150
g2
((lp4151
g131
atp4152
Rp4153
sS'dolasetron_mesylate'
p4154
g2
((lp4155
g194
atp4156
Rp4157
sS'ferrous_sulfate'
p4158
g2
((lp4159
g92
atp4160
Rp4161
sS'metformin_hydrochloride_saxagliptin_hydrochl'
p4162
g2
((lp4163
g131
atp4164
Rp4165
sS'flavocoxid'
p4166
g2
((lp4167
g62
atp4168
Rp4169
sS'hydrochlorothiazide'
p4170
g2
((lp4171
g28
atp4172
Rp4173
sS'belladonna_alkaloids'
p4174
g2
((lp4175
g62
ag342
ag797
ag347
atp4176
Rp4177
sS'aspirin'
p4178
g2
((lp4179
g554
atp4180
Rp4181
sS'lacosamide'
p4182
g2
((lp4183
g518
atp4184
Rp4185
sS'calcium_cyanocobalamin_folic_acid_pyridoxine'
p4186
g2
((lp4187
g92
atp4188
Rp4189
sS'stannous_fluoride'
p4190
g2
((lp4191
g1964
atp4192
Rp4193
sS'haloperidol'
p4194
g2
((lp4195
g261
atp4196
Rp4197
sS'ezetimibe_simvastatin'
p4198
g2
((lp4199
g91
atp4200
Rp4201
sS'erythromycin_stearate'
p4202
g2
((lp4203
g9
atp4204
Rp4205
sS'theophylline'
p4206
g2
((lp4207
g92
atp4208
Rp4209
sS'chloroxylenol_hc_pramoxine_hcl'
p4210
g2
((lp4211
g4
atp4212
Rp4213
sS'mometasone_furoate'
p4214
g2
((lp4215
g4
atp4216
Rp4217
sS'carbinoxamine_maleate'
p4218
g2
((lp4219
g52
atp4220
Rp4221
sS'amylase_lipase_protease'
p4222
g2
((lp4223
tp4224
Rp4225
sS'hc_ace_pramoxine_hcl;pramoxine_hcl'
p4226
g2
((lp4227
g4
atp4228
Rp4229
sS'kit__blood_glucose_test'
p4230
g2
((lp4231
g839
atp4232
Rp4233
sS'lurasidone_hydrochloride'
p4234
g2
((lp4235
g261
atp4236
Rp4237
sS'methotrexate'
p4238
g2
((lp4239
g189
atp4240
Rp4241
sS'amlodipine_besylate_valsartan'
p4242
g2
((lp4243
g544
atp4244
Rp4245
sS'alendronate_sodium'
p4246
g2
((lp4247
g62
atp4248
Rp4249
sS'glatiramer_acetate'
p4250
g2
((lp4251
g2145
atp4252
Rp4253
sS'lamivudine_zidovudine'
p4254
g2
((lp4255
g964
atp4256
Rp4257
sS'mycophenolate_sodium'
p4258
g2
((lp4259
g18
atp4260
Rp4261
sS'carisoprodol'
p4262
g2
((lp4263
g406
atp4264
Rp4265
sS'megestrol_acetate'
p4266
g2
((lp4267
g189
atp4268
Rp4269
sS'valacyclovir_hydrochloride'
p4270
g2
((lp4271
g964
atp4272
Rp4273
sS'minoxidil'
p4274
g2
((lp4275
g62
ag618
atp4276
Rp4277
sS'l-methylfolate'
p4278
g2
((lp4279
g92
atp4280
Rp4281
sS'temozolomide'
p4282
g2
((lp4283
g189
atp4284
Rp4285
sS'lansoprazole'
p4286
g2
((lp4287
g797
atp4288
Rp4289
sS'tolmetin_sodium'
p4290
g2
((lp4291
g231
atp4292
Rp4293
sS'mebendazole'
p4294
g2
((lp4295
g603
atp4296
Rp4297
sS'ramelteon'
p4298
g2
((lp4299
g1153
atp4300
Rp4301
sS'paliperidone'
p4302
g2
((lp4303
g261
atp4304
Rp4305
sS'chlorhexidine_gluconate'
p4306
g2
((lp4307
g62
ag153
atp4308
Rp4309
sS'acetaminophen'
p4310
g2
((lp4311
g248
ag554
atp4312
Rp4313
sS'carbetapentane_cit_pse_hcl_pyril_mal'
p4314
g2
((lp4315
g52
atp4316
Rp4317
sS'simvastatin'
p4318
g2
((lp4319
g91
atp4320
Rp4321
sS'clobetasol_propionate'
p4322
g2
((lp4323
g4
atp4324
Rp4325
sS'baclofen'
p4326
g2
((lp4327
g406
atp4328
Rp4329
sS'budesonide_formoterol_fumarate'
p4330
g2
((lp4331
g4
atp4332
Rp4333
sS'diphenhydramine_tannate_phenylephrine_tannat'
p4334
g2
((lp4335
g52
atp4336
Rp4337
sS'terbinafine_hydrochloride'
p4338
g2
((lp4339
g509
atp4340
Rp4341
sS'hexachlorophene'
p4342
g2
((lp4343
g153
atp4344
Rp4345
sS'phenylephrine_hydrochloride'
p4346
g2
((lp4347
g62
ag52
atp4348
Rp4349
sS'bacitracin_zinc_neomycin_polymyxin_b_sulfate'
p4350
g2
((lp4351
g9
atp4352
Rp4353
sS'follitropin_beta'
p4354
g2
((lp4355
g384
atp4356
Rp4357
sS'ethinyl_estradiol_norgestimate'
p4358
g2
((lp4359
g674
ag608
atp4360
Rp4361
sS'nitrofurantoin_monohydrate_nitrofurantoin__m'
p4362
g2
((lp4363
g342
atp4364
Rp4365
sS'cimetidine_hydrochloride'
p4366
g2
((lp4367
g523
atp4368
Rp4369
sS'cream_base'
p4370
g2
((lp4371
g2375
atp4372
Rp4373
sS'ziprasidone_hydrochloride'
p4374
g2
((lp4375
g261
atp4376
Rp4377
sS'progesterone__micronized'
p4378
g2
((lp4379
g62
atp4380
Rp4381
sS'acetylcysteine'
p4382
g2
((lp4383
g92
atp4384
Rp4385
sS'valproic_acid'
p4386
g2
((lp4387
g518
atp4388
Rp4389
sS'levothyroxine_sodium'
p4390
g2
((lp4391
g1401
atp4392
Rp4393
sS'methadone_hydrochloride'
p4394
g2
((lp4395
g52
atp4396
Rp4397
sS'mirabegron'
p4398
g2
((lp4399
g23
atp4400
Rp4401
sS'benazepril_hydrochloride_hydrochlorothiazide'
p4402
g2
((lp4403
g208
atp4404
Rp4405
sS'chorionic_gonadotropin_alfa__recombinant'
p4406
g2
((lp4407
g384
atp4408
Rp4409
sS'ramipril'
p4410
g2
((lp4411
g208
atp4412
Rp4413
sS'disulfiram'
p4414
g2
((lp4415
g62
atp4416
Rp4417
sS'insulin_aspart__recombinant'
p4418
g2
((lp4419
g184
atp4420
Rp4421
sS'triamcinolone_acetonide'
p4422
g2
((lp4423
g248
ag4
atp4424
Rp4425
sS'phenylephrine_tannate_pyrilamine_tannate'
p4426
g2
((lp4427
g52
atp4428
Rp4429
sS'levonorgestrel'
p4430
g2
((lp4431
g608
atp4432
Rp4433
sS'cpm_hydrocod_bit_pse_hcl'
p4434
g2
((lp4435
g52
atp4436
Rp4437
sS'carvedilol_phosphate'
p4438
g2
((lp4439
g140
atp4440
Rp4441
sS'medroxyprogesterone_acetate'
p4442
g2
((lp4443
g62
atp4444
Rp4445
sS'phenazopyridine_hydrochloride'
p4446
g2
((lp4447
g62
atp4448
Rp4449
sS'omega-3-acid_ethyl_esters'
p4450
g2
((lp4451
g91
atp4452
Rp4453
sS'trandolapril_verapamil_hydrochloride'
p4454
g2
((lp4455
g208
atp4456
Rp4457
sS'acyclovir_hydrocortisone'
p4458
g2
((lp4459
g4
atp4460
Rp4461
sS'teriparatide'
p4462
g2
((lp4463
g62
atp4464
Rp4465
sS'spacer__inhalation'
p4466
g2
((lp4467
g839
atp4468
Rp4469
sS'griseofulvin__ultramicrocrystalline'
p4470
g2
((lp4471
g509
atp4472
Rp4473
sS'brompheniramine_maleate'
p4474
g2
((lp4475
g52
atp4476
Rp4477
sS'nystatin_triamcinolone_acetonide'
p4478
g2
((lp4479
g4
ag509
atp4480
Rp4481
sS'cyproheptadine_hydrochloride'
p4482
g2
((lp4483
g52
atp4484
Rp4485
sS'estriol'
p4486
g2
((lp4487
tp4488
Rp4489
sS'penciclovir'
p4490
g2
((lp4491
tp4492
Rp4493
s.