(dp0
S'Antidiabetic Ag, Sulfonylureas'
p1
c__builtin__
set
p2
((lp3
S'glipizide'
p4
aS'glyburide'
p5
aS'glimepiride'
p6
aS'glyburide_metformin_hydrochloride'
p7
atp8
Rp9
sS'Angiotensin Rec Blocker'
p10
g2
((lp11
S'amlodipine_besylate_valsartan'
p12
aS'amlodipine_besylate_olmesartan_medoxomil'
p13
aS'telmisartan'
p14
aS'olmesartan_medoxomil'
p15
aS'valsartan'
p16
aS'candesartan_cilexetil'
p17
aS'losartan_potassium'
p18
aS'irbesartan'
p19
atp20
Rp21
sS'Emoll/Moist/Demul/Protect S/MM'
p22
g2
((lp23
S'ammonium_lactate'
p24
aS'urea'
p25
aS'cream__multi_ingredient'
p26
atp27
Rp28
sS'Analg/Antipyr, Opiate Agonists'
p29
g2
((lp30
S'apap_butalbital_caff_codeine_phos'
p31
aS'acetaminophen_hydrocodone_bitartrate'
p32
aS'methadone_hydrochloride'
p33
aS'hydrocodone_bitartrate_ibuprofen'
p34
aS'tapentadol_hydrochloride'
p35
aS'acetaminophen_oxycodone_hydrochloride'
p36
aS'fentanyl'
p37
aS'aspirin_butalbital_caffeine_codeine_phosphat'
p38
aS'meperidine_hcl_promethazine_hcl'
p39
aS'acetaminophen_codeine_phosphate'
p40
aS'oxycodone_hydrochloride'
p41
aS'meperidine_hydrochloride'
p42
aS'codeine_phosphate_guaifenesin'
p43
aS'acetaminophen_propoxyphene_napsylate'
p44
aS'hydromorphone_hydrochloride'
p45
aS'morphine_sulfate'
p46
atp47
Rp48
sS'Keratolytic Agents S/MM'
p49
g2
((lp50
g25
aS'chlorhexidine_gluconate'
p51
aS'salicylic_acid'
p52
atp53
Rp54
sS'Anticholinergic'
p55
g2
((lp56
S'cpm_methscopolamine_nitrate_pse_hcl'
p57
aS'ipratropium_bromide'
p58
aS'tiotropium_bromide'
p59
atp60
Rp61
sS'Hypotensive Agents'
p62
g2
((lp63
S'clonidine'
p64
aS'clonidine_hydrochloride'
p65
aS'methyldopa'
p66
aS'guanfacine_hydrochloride'
p67
aS'hydralazine_hydrochloride'
p68
aS'doxazosin_mesylate'
p69
atp70
Rp71
sS'Psychother,Tranq/Antipsychotic'
p72
g2
((lp73
S'quetiapine_fumarate'
p74
aS'risperidone'
p75
aS'ziprasidone_hydrochloride'
p76
aS'prochlorperazine_maleate'
p77
aS'prochlorperazine'
p78
aS'aripiprazole'
p79
aS'olanzapine'
p80
atp81
Rp82
sS'Vaccines'
p83
g2
((lp84
S'varicella_virus_vaccine'
p85
aS'influenza_virus_vaccine__subvirion_'
p86
aS'influenza_virus_vaccine'
p87
atp88
Rp89
sS'Immunosuppressants'
p90
g2
((lp91
S'etanercept'
p92
aS'azathioprine'
p93
aS'adalimumab'
p94
aS'cyclosporine'
p95
aS'tacrolimus'
p96
atp97
Rp98
sS'Gonadotropins'
p99
g2
((lp100
S'chorionic_gonadotropin_alfa__recombinant'
p101
aS'chorionic_gonadotropin'
p102
aS'follicle_stimulating_hormone_luteinizing_hor'
p103
aS'follitropin_beta'
p104
atp105
Rp106
sS'Antihyperlipidemic Drugs'
p107
g2
((lp108
S'atorvastatin_calcium'
p109
aS'fenofibrate__micronized'
p110
aS'lovastatin'
p111
aS'omega-3-acid_ethyl_esters'
p112
aS'cholestyramine'
p113
aS'ezetimibe_simvastatin'
p114
aS'fenofibrate'
p115
aS'ezetimibe'
p116
aS'colesevelam_hydrochloride'
p117
aS'fluvastatin_sodium'
p118
aS'fenofibric_acid'
p119
aS'rosuvastatin_calcium'
p120
aS'pravastatin_sodium'
p121
aS'simvastatin'
p122
aS'gemfibrozil'
p123
atp124
Rp125
sS'Pharmaceutical Aids/Adjuv'
p126
g2
((lp127
S'polyethylene_glycol_3350'
p128
aS'peg_electrolyte_lavage_solution'
p129
atp130
Rp131
sS'Repl Preps, Phosphorus Preps'
p132
g2
((lp133
S'na_phos__dibasic_na_phos__monobasic'
p134
atp135
Rp136
sS'Repl Preps, Potassium Supp'
p137
g2
((lp138
S'potassium_chloride'
p139
atp140
Rp141
sS'Vascular 5HT1 Agonist'
p142
g2
((lp143
S'sumatriptan'
p144
aS'eletriptan_hydrobromide'
p145
aS'sumatriptan_succinate'
p146
aS'almotriptan_malate'
p147
aS'rizatriptan_benzoate'
p148
aS'zolmitriptan'
p149
aS'frovatriptan_succinate'
p150
atp151
Rp152
sS'Antivirals'
p153
g2
((lp154
S'valacyclovir_hydrochloride'
p155
aS'acyclovir'
p156
aS'oseltamivir_phosphate'
p157
aS'famciclovir'
p158
aS'amantadine_hydrochloride'
p159
atp160
Rp161
sS'Diuretic, Carb Anhydrase Inhib'
p162
g2
((lp163
S'acetazolamide'
p164
atp165
Rp166
sS'Fluoride Preparations'
p167
g2
((lp168
S'multivitamin_and_fluoride'
p169
aS'sodium_fluoride'
p170
atp171
Rp172
sS'Stimulant, Amphetamine Type'
p173
g2
((lp174
S'methylphenidate_hydrochloride'
p175
aS'phentermine_hydrochloride'
p176
aS'amphetamine_salt_combination'
p177
aS'lisdexamfetamine_dimesylate'
p178
aS'modafinil'
p179
aS'dexmethylphenidate_hydrochloride'
p180
atp181
Rp182
sS'Antigout Agents'
p183
g2
((lp184
S'allopurinol'
p185
aS'colchicine'
p186
atp187
Rp188
sS'Gastrointestinal Drug Misc'
p189
g2
((lp190
S'omeprazole'
p191
aS'dexlansoprazole'
p192
aS'mesalamine'
p193
aS'omeprazole_sodium_bicarbonate'
p194
aS'rabeprazole_sodium'
p195
aS'misoprostol'
p196
aS'esomeprazole_magnesium'
p197
aS'atropine_sulf_hyoscyamine_sulf_pb_scop_hydro'
p198
aS'sucralfate'
p199
aS'tegaserod_maleate'
p200
aS'pantoprazole_sodium'
p201
aS'lansoprazole'
p202
ag129
atp203
Rp204
sS'Leukotriene Modifiers'
p205
g2
((lp206
S'montelukast_sodium'
p207
atp208
Rp209
sS'Antidiabetic Agents, Misc'
p210
g2
((lp211
S'sitagliptin_phosphate'
p212
aS'pioglitazone_hydrochloride'
p213
aS'metformin_hydrochloride_pioglitazone_hydroch'
p214
aS'metformin_hydrochloride_sitagliptin_phosphat'
p215
aS'metformin_hydrochloride_rosiglitazone_maleat'
p216
aS'glucagon_hydrochloride'
p217
aS'rosiglitazone_maleate'
p218
aS'liraglutide'
p219
aS'metformin_hydrochloride'
p220
aS'exenatide'
p221
atp222
Rp223
sS'Diuretics, Loop Diuretics'
p224
g2
((lp225
S'furosemide'
p226
aS'bumetanide'
p227
aS'torsemide'
p228
atp229
Rp230
sS'Cardiac, Cardiac Glycosides'
p231
g2
((lp232
S'digoxin'
p233
atp234
Rp235
sS'ACE inhibitor'
p236
g2
((lp237
S'fosinopril_sodium'
p238
aS'enalapril_maleate'
p239
aS'benazepril_hydrochloride_hydrochlorothiazide'
p240
aS'benazepril_hydrochloride'
p241
aS'ramipril'
p242
aS'amlodipine_besylate_benazepril_hydrochloride'
p243
aS'hydrochlorothiazide_lisinopril'
p244
aS'captopril'
p245
aS'quinapril_hydrochloride'
p246
aS'lisinopril'
p247
atp248
Rp249
sS'Eyewash/Eyestrm/Lubr/Tear'
p250
g2
((lp251
g95
aS'sodium_chloride'
p252
atp253
Rp254
sS'Antiemetics'
p255
g2
((lp256
S'ondansetron_hydrochloride'
p257
aS'metoclopramide_hydrochloride'
p258
aS'benzocaine_trimethobenzamide_hydrochloride'
p259
ag77
aS'trimethobenzamide_hydrochloride'
p260
aS'meclizine_hydrochloride'
p261
ag78
aS'ondansetron'
p262
aS'aprepitant'
p263
atp264
Rp265
sS'Adrenals & Comb'
p266
g2
((lp267
S'betamethasone_dipropionate__augmented'
p268
aS'fluocinonide'
p269
aS'betamethasone_dipropionate_calcipotriene'
p270
aS'budesonide_formoterol_fumarate'
p271
aS'chloroxylenol_hc_pramoxine_hcl'
p272
aS'halobetasol_propionate'
p273
aS'mometasone_furoate'
p274
aS'methylprednisolone'
p275
aS'ketorolac_tromethamine'
p276
aS'fluticasone_furoate'
p277
aS'hydrocortisone'
p278
aS'fluticasone_propionate'
p279
aS'bromfenac_sodium'
p280
aS'alclometasone_dipropionate'
p281
aS'betamethasone_dipropionate'
p282
aS'hydrocortisone_butyrate'
p283
aS'formoterol_fumarate_mometasone_furoate'
p284
aS'prednisolone_acetate_sulfacetamide_sodium'
p285
aS'bromfenac'
p286
aS'acetic_acid_hydrocortisone'
p287
aS'loteprednol_etabonate'
p288
aS'fluorometholone'
p289
aS'diclofenac_sodium'
p290
aS'clobetasol_propionate'
p291
aS'fluocinolone_acetonide'
p292
aS'betamethasone_valerate'
p293
aS'desoximetasone'
p294
aS'clocortolone_pivalate'
p295
aS'prednisolone'
p296
aS'prednisone'
p297
aS'ciclesonide'
p298
aS'budesonide'
p299
aS'hydrocortisone_valerate'
p300
aS'nepafenac'
p301
aS'hydrocortisone_acetate_pramoxine_hydrochlori'
p302
aS'hc_neomycin_sulf_polymyxin_b_sulf'
p303
aS'beclomethasone_dipropionate'
p304
aS'difluprednate'
p305
aS'desonide'
p306
aS'flurandrenolide'
p307
aS'triamcinolone_acetonide'
p308
aS'dexamethasone'
p309
aS'prednisolone_acetate'
p310
aS'fludrocortisone_acetate'
p311
aS'prednisolone_sodium_phosphate'
p312
aS'flunisolide'
p313
aS'hydrocortisone_acetate'
p314
aS'diflorasone_diacetate'
p315
aS'nystatin_triamcinolone_acetonide'
p316
aS'fluticasone_propionate_salmeterol_xinafoate'
p317
atp318
Rp319
sS'Antiinf S/MM,Antifungal & Comb'
p320
g2
((lp321
S'terconazole'
p322
aS'betamethasone_dipropionate_clotrimazole'
p323
aS'clotrimazole'
p324
aS'oxiconazole_nitrate'
p325
aS'butoconazole_nitrate'
p326
aS'nystatin'
p327
aS'naftifine_hydrochloride'
p328
aS'griseofulvin__microcrystalline'
p329
aS'ketoconazole'
p330
aS'fluconazole'
p331
ag316
aS'itraconazole'
p332
aS'terbinafine_hydrochloride'
p333
aS'ciclopirox'
p334
aS'econazole_nitrate'
p335
atp336
Rp337
sS'Antiinf S/MM, Antiinf Loc Misc'
p338
g2
((lp339
S'benzoyl_peroxide_clindamycin_phosphate'
p340
aS'benzoyl_peroxide'
p341
aS'silver_sulfadiazine'
p342
aS'doxycycline'
p343
ag52
aS'metronidazole'
p344
aS'adapalene_benzoyl_peroxide'
p345
aS'azelaic_acid'
p346
atp347
Rp348
sS'Estrogens & Comb'
p349
g2
((lp350
S'ethinyl_estradiol_etonogestrel'
p351
aS'estropipate'
p352
aS'estradiol_norethindrone_acetate'
p353
aS'ethinyl_estradiol_norgestimate'
p354
aS'conjugated_estrogens_medroxyprogesterone_ace'
p355
aS'esterified_estrogens_methyltestosterone'
p356
aS'estradiol'
p357
aS'conjugated_estrogens'
p358
aS'raloxifene_hydrochloride'
p359
aS'conjugated_estrogens_synthetic_a'
p360
atp361
Rp362
sS'Antituberculosis Agents'
p363
g2
((lp364
S'rifampin'
p365
atp366
Rp367
sS'Vitamin A & Derivatives'
p368
g2
((lp369
S'isotretinoin'
p370
atp371
Rp372
sS'Oxytocics'
p373
g2
((lp374
S'methylergonovine_maleate'
p375
atp376
Rp377
sS'Anticonv, Hydantoin Derivative'
p378
g2
((lp379
S'phenytoin_sodium__extended'
p380
atp381
Rp382
sS'Coag/Anticoag, Anticoagulants'
p383
g2
((lp384
S'rivaroxaban'
p385
aS'warfarin_sodium'
p386
aS'enoxaparin_sodium'
p387
atp388
Rp389
sS'Vasodilating Agents'
p390
g2
((lp391
S'isosorbide_mononitrate'
p392
aS'nitroglycerin'
p393
atp394
Rp395
sS'Antimalarial Agents'
p396
g2
((lp397
S'chloroquine_phosphate'
p398
aS'quinine_sulfate'
p399
aS'hydroxychloroquine_sulfate'
p400
aS'mefloquine_hydrochloride'
p401
atp402
Rp403
sS'Contraceptive, Oral Comb'
p404
g2
((lp405
S'ethinyl_estradiol_norethindrone'
p406
aS'ethinyl_estradiol_levonorgestrel'
p407
aS'ethinyl_estradiol_ferrous_fum_norethindrone_'
p408
aS'desogestrel_ethinyl_estradiol'
p409
aS'ethinyl_estradiol_norethindrone;ferrous_fuma'
p410
aS'desogestrel_ethinyl_estradiol;ethinyl_estrad'
p411
ag354
aS'drospirenone_ethinyl_estradiol'
p412
aS'ethinyl_estradiol;ethinyl_estradiol_levonorg'
p413
aS'ethinyl_estradiol_norethindrone_ace;ferrous_'
p414
aS'ethinyl_estradiol_norethindrone_acetate'
p415
aS'estrogen_progestin_folate_combination'
p416
aS'ethinyl_estradiol_norelgestromin'
p417
aS'levonorgestrel'
p418
aS'ethinyl_estradiol_norgestrel'
p419
aS'ethinyl_estradiol_ethynodiol_diacetate'
p420
atp421
Rp422
sS'Sulfones'
p423
g2
((lp424
S'dapsone'
p425
atp426
Rp427
sS'Cardiac, Antiarrhythmic Agents'
p428
g2
((lp429
S'lidocaine_hydrochloride'
p430
ag399
aS'amiodarone_hydrochloride'
p431
atp432
Rp433
sS'Thy/Antithy, Thyroid/Hormones'
p434
g2
((lp435
S'thyroid'
p436
aS'liothyronine_sodium'
p437
aS'levothyroxine_sodium'
p438
atp439
Rp440
sS'Histamine (H2) Antagonist'
p441
g2
((lp442
S'famotidine'
p443
aS'ranitidine_hydrochloride'
p444
aS'nizatidine'
p445
aS'cimetidine'
p446
atp447
Rp448
sS'Diabetes Mell/Diab Supply'
p449
g2
((lp450
S'lancet_device'
p451
aS'needle'
p452
aS'glucose__blood_test'
p453
aS'insulin_syringe_needle'
p454
aS'spacer__inhalation'
p455
ag430
aS'glucose_meter'
p456
aS'lancet'
p457
aS'glucose_meter_test_control_strips'
p458
atp459
Rp460
sS'Diuretics, Potassium-Sparing'
p461
g2
((lp462
S'spironolactone'
p463
aS'hydrochlorothiazide_triamterene'
p464
aS'hydrochlorothiazide_spironolactone'
p465
atp466
Rp467
sS'Antiplatelet Agents'
p468
g2
((lp469
S'cilostazol'
p470
aS'aspirin_dipyridamole'
p471
aS'clopidogrel_hydrogen_sulfate'
p472
atp473
Rp474
sS'ASH, Benzodiazepines'
p475
g2
((lp476
S'diazepam'
p477
aS'triazolam'
p478
aS'clorazepate_dipotassium'
p479
aS'alprazolam'
p480
aS'temazepam'
p481
aS'lorazepam'
p482
atp483
Rp484
sS'CNS Agents, Misc.'
p485
g2
((lp486
S'carbidopa_levodopa'
p487
aS'milnacipran_hydrochloride'
p488
aS'memantine_hydrochloride'
p489
aS'pramipexole_dihydrochloride'
p490
aS'atomoxetine_hydrochloride'
p491
aS'pregabalin'
p492
aS'ropinirole_hydrochloride'
p493
atp494
Rp495
sS'Muscle Relax, Skeletal, Misc'
p496
g2
((lp497
S'orphenadrine_citrate'
p498
atp499
Rp500
sS'Antibiot, Penicillins'
p501
g2
((lp502
S'amoxicillin_clavulanate_potassium'
p503
aS'amoxicillin;clarithromycin;lansoprazole'
p504
aS'dicloxacillin_sodium'
p505
aS'penicillin_v_potassium'
p506
aS'ampicillin'
p507
aS'amoxicillin'
p508
atp509
Rp510
sS'Antineoplastic Agents'
p511
g2
((lp512
S'anastrozole'
p513
aS'letrozole'
p514
aS'tamoxifen_citrate'
p515
aS'megestrol_acetate'
p516
aS'tretinoin'
p517
aS'methotrexate'
p518
aS'leuprolide_acetate'
p519
aS'methotrexate_sodium'
p520
aS'fluorouracil'
p521
atp522
Rp523
sS'Antiinfect, Antibiotics EENT'
p524
g2
((lp525
S'neomycin_sulfate'
p526
aS'erythromycin_stearate'
p527
aS'doxycycline_hyclate'
p528
aS'tetracycline_hydrochloride'
p529
aS'gramicidin_neomycin_sulfate_polymyxin_b_sulf'
p530
aS'tobramycin'
p531
aS'retapamulin'
p532
aS'clindamycin_palmitate_hydrochloride'
p533
ag343
aS'ciprofloxacin_hydrochloride_dexamethasone'
p534
ag340
aS'vancomycin_hydrochloride'
p535
aS'clindamycin_phosphate'
p536
aS'mupirocin_calcium'
p537
aS'polymyxin_b_sulfate_trimethoprim_sulfate'
p538
ag504
aS'levofloxacin'
p539
aS'gentamicin_sulfate'
p540
aS'mupirocin'
p541
aS'sulfacetamide_sodium_sulfur'
p542
aS'bacitracin'
p543
aS'rifaximin'
p544
aS'benzoyl_peroxide_erythromycin'
p545
aS'besifloxacin_hydrochloride'
p546
aS'gatifloxacin'
p547
aS'clindamycin_hydrochloride'
p548
aS'minocycline_hydrochloride'
p549
aS'clarithromycin'
p550
aS'ofloxacin'
p551
aS'sulfacetamide_sodium'
p552
aS'moxifloxacin_hydrochloride'
p553
aS'telithromycin'
p554
aS'erythromycin_ethylsuccinate'
p555
aS'bacitracin_zinc_polymyxin_b_sulfate'
p556
aS'ciprofloxacin_ciprofloxacin_hydrochloride'
p557
aS'erythromycin'
p558
aS'ciprofloxacin_hydrochloride_hydrocortisone'
p559
aS'clindamycin_phosphate_tretinoin'
p560
aS'azithromycin'
p561
aS'gemifloxacin_mesylate'
p562
aS'ciprofloxacin_hydrochloride'
p563
atp564
Rp565
sS'Analy/Antipyr,OpiatePart Agnst'
p566
g2
((lp567
S'buprenorphine_hydrochloride_naloxone_hydroch'
p568
atp569
Rp570
sS'Cholelitholytic Agents'
p571
g2
((lp572
S'ursodiol'
p573
atp574
Rp575
sS'Muscle Rel,Smooth-Genitour'
p576
g2
((lp577
S'oxybutynin_chloride'
p578
aS'solifenacin_succinate'
p579
aS'tolterodine_tartrate'
p580
aS'darifenacin_hydrobromide'
p581
atp582
Rp583
sS'Anticonvulsant, Benzodiazepine'
p584
g2
((lp585
S'clonazepam'
p586
atp587
Rp588
sS'Thy/Antithy, Antithyroid Agent'
p589
g2
((lp590
S'methimazole'
p591
atp592
Rp593
sS'Analg/Antipyr,Nonstr/Antiinflm'
p594
g2
((lp595
g276
aS'sulindac'
p596
aS'ibuprofen'
p597
aS'diclofenac_sodium_misoprostol'
p598
ag280
aS'rofecoxib'
p599
aS'oxaprozin'
p600
aS'valdecoxib'
p601
aS'meloxicam'
p602
aS'naproxen'
p603
aS'diclofenac_potassium'
p604
ag290
aS'piroxicam'
p605
aS'nabumetone'
p606
aS'etodolac'
p607
aS'mefenamic_acid'
p608
aS'flurbiprofen'
p609
aS'celecoxib'
p610
aS'naproxen_sodium'
p611
aS'naproxen_sodium_sumatriptan_succinate'
p612
aS'ketoprofen'
p613
aS'indomethacin'
p614
atp615
Rp616
sS'Autonomic, Nicotine Preps'
p617
g2
((lp618
S'varenicline'
p619
aS'nicotine'
p620
atp621
Rp622
sS'Psychother, Antidepressants'
p623
g2
((lp624
S'vilazodone_hydrochloride'
p625
aS'imipramine_hydrochloride'
p626
aS'doxepin_hydrochloride'
p627
aS'nortriptyline_hydrochloride'
p628
aS'citalopram_hydrobromide'
p629
aS'escitalopram_oxalate'
p630
aS'paroxetine_hydrochloride'
p631
aS'amitriptyline_hydrochloride'
p632
aS'duloxetine_hydrochloride'
p633
aS'mirtazapine'
p634
aS'trazodone_hydrochloride'
p635
aS'venlafaxine_hydrochloride'
p636
aS'sertraline_hydrochloride'
p637
aS'fluoxetine_hydrochloride'
p638
aS'bupropion_hydrochloride'
p639
aS'desvenlafaxine_succinate'
p640
atp641
Rp642
sS'Antiinf S/MM,Antivirals & Comb'
p643
g2
((lp644
S'penciclovir'
p645
atp646
Rp647
sS'Calcium channel blockers'
p648
g2
((lp649
S'nifedipine'
p650
ag12
aS'amlodipine_besylate'
p651
ag13
aS'amlodipine_besylate_atorvastatin_calcium'
p652
ag243
aS'felodipine'
p653
aS'verapamil_hydrochloride'
p654
aS'diltiazem_hydrochloride'
p655
atp656
Rp657
sS'S/MM Misc, Astringents'
p658
g2
((lp659
S'aluminum_chloride'
p660
atp661
Rp662
sS'Parasympathomimetic'
p663
g2
((lp664
S'donepezil_hydrochloride'
p665
atp666
Rp667
sS'Antimanic Agents'
p668
g2
((lp669
S'lithium_carbonate'
p670
atp671
Rp672
sS'Ovulation Stimulants'
p673
g2
((lp674
S'clomiphene_citrate'
p675
atp676
Rp677
sS'Multivit Prep, Multivit Plain'
p678
g2
((lp679
S'niacin'
p680
ag169
aS'prenatal_vitamins'
p681
aS'vitamin_b_complex__iron__and_vitamin_c'
p682
aS'multivitamin__minerals__and_iron'
p683
aS'cyanocobalamin_folic_acid_pyridoxine'
p684
aS'multivitamin_and_minerals'
p685
aS'multivitamin_and_iron'
p686
aS'cyanocobalamin'
p687
aS'theophylline'
p688
aS'folic_acid'
p689
ag558
atp690
Rp691
sS'Anxiolytic/Sedative/Hypnot'
p692
g2
((lp693
S'eszopiclone'
p694
ag627
aS'hydroxyzine_pamoate'
p695
aS'buspirone_hydrochloride'
p696
aS'ramelteon'
p697
aS'zaleplon'
p698
aS'zolpidem_tartrate'
p699
aS'hydroxyzine_hydrochloride'
p700
atp701
Rp702
sS'Anti-Infectives, Misc'
p703
g2
((lp704
g344
aS'tinidazole'
p705
aS'atovaquone_proguanil_hydrochloride'
p706
aS'trimethoprim'
p707
atp708
Rp709
sS'Muscle Relax, Skeletal Central'
p710
g2
((lp711
S'carisoprodol'
p712
aS'tizanidine_hydrochloride'
p713
aS'cyclobenzaprine_hydrochloride'
p714
aS'metaxalone'
p715
aS'methocarbamol'
p716
aS'chlorzoxazone'
p717
aS'baclofen'
p718
atp719
Rp720
sS'Anthelmintics'
p721
g2
((lp722
S'mebendazole'
p723
atp724
Rp725
sS'Cath&Lax, Laxatives, Saline'
p726
g2
((lp727
S'magnesium_sulfate_potassium_sulfate_sodium_s'
p728
ag134
atp729
Rp730
sS'Antichol/Antimuscarin/Antispas'
p731
g2
((lp732
S'chlordiazepoxide_hydrochloride_clidinium_bro'
p733
aS'glycopyrrolate'
p734
aS'atropine_sulfate'
p735
aS'dicyclomine_hydrochloride'
p736
aS'scopolamine'
p737
ag198
aS'hyoscyamine_sulfate'
p738
atp739
Rp740
sS'Misc Therapeutic Agents'
p741
g2
((lp742
S'alendronate_sodium_cholecalciferol'
p743
ag685
ag393
aS'norethindrone'
p744
aS'pentosan_polysulfate_sodium'
p745
aS'imiquimod'
p746
ag252
aS'risedronate_sodium'
p747
aS'belladonna_alkaloids_and_analgesics'
p748
ag96
aS'norethindrone_acetate'
p749
ag357
ag290
ag25
ag51
aS'progesterone__micronized'
p750
aS'phenazopyridine_hydrochloride'
p751
aS'tamsulosin_hydrochloride'
p752
ag139
aS'ibandronate_sodium'
p753
aS'pimecrolimus'
p754
aS'calcipotriene'
p755
ag487
ag352
aS'medroxyprogesterone_acetate'
p756
aS'alendronate_sodium'
p757
aS'progesterone'
p758
aS'permethrin'
p759
aS'diclofenac_epolamine'
p760
atp761
Rp762
sS'Thiazide & comb'
p763
g2
((lp764
S'hydrochlorothiazide_olmesartan_medoxomil'
p765
aS'metolazone'
p766
ag240
aS'atenolol_chlorthalidone'
p767
aS'indapamide'
p768
aS'hydrochlorothiazide_triamterene'
p769
aS'bisoprolol_fumarate_hydrochlorothiazide'
p770
aS'hydrochlorothiazide_valsartan'
p771
aS'hydrochlorothiazide_spironolactone'
p772
aS'hydrochlorothiazide_telmisartan'
p773
aS'hydrochlorothiazide_losartan_potassium'
p774
aS'hydrochlorothiazide_irbesartan'
p775
aS'hydrochlorothiazide'
p776
aS'chlorthalidone'
p777
ag244
atp778
Rp779
sS'Ammonia Detoxicants'
p780
g2
((lp781
S'lactulose'
p782
atp783
Rp784
sS'Keratoplastic Agents S/MM'
p785
g2
((lp786
S'selenium_sulfide'
p787
atp788
Rp789
sS'Cath&Lax, Laxatives/Enemas'
p790
g2
((lp791
S'k_cl_na_bicarb_na_cl_na_sulf_peg'
p792
aS'lubiprostone'
p793
ag129
aS'k_cl_na_bicarb_na_cl_polyethylene_glycol_335'
p794
atp795
Rp796
sS'Digestants & Comb'
p797
g2
((lp798
S'amylase_lipase_protease'
p799
atp800
Rp801
sS'Antiinf S/MM, Scabic/Pediculic'
p802
g2
((lp803
g759
aS'malathion'
p804
atp805
Rp806
sS'Antibiot, Cephalosporin & Rel.'
p807
g2
((lp808
S'cefixime'
p809
aS'cefprozil'
p810
aS'cephalexin'
p811
aS'cefuroxime_axetil'
p812
aS'cefadroxil'
p813
aS'cefditoren_pivoxil'
p814
aS'cefaclor'
p815
aS'cefdinir'
p816
aS'cefpodoxime_proxetil'
p817
atp818
Rp819
sS'Antiinfect, Antiinflam EENT'
p820
g2
((lp821
S'dexamethasone_neomycin_sulfate_polymyxin_b_s'
p822
ag303
ag285
aS'dexamethasone_tobramycin'
p823
aS'loteprednol_etabonate_tobramycin'
p824
atp825
Rp826
sS'Antidiarrhea Agents'
p827
g2
((lp828
S'loperamide_hydrochloride'
p829
aS'atropine_sulfate_diphenoxylate_hydrochloride'
p830
atp831
Rp832
sS'Anticonvulsants, Misc'
p833
g2
((lp834
S'oxcarbazepine'
p835
aS'carbamazepine'
p836
aS'levetiracetam'
p837
aS'zonisamide'
p838
aS'topiramate'
p839
aS'divalproex_sodium'
p840
aS'lamotrigine'
p841
aS'gabapentin'
p842
atp843
Rp844
sS'Depig/Pig S/MM Depigment Agent'
p845
g2
((lp846
S'hydroquinone'
p847
atp848
Rp849
sS'Urinary Anti-Infectives'
p850
g2
((lp851
S'nitrofurantoin_monohydrate_nitrofurantoin__m'
p852
aS'nitrofurantoin__macrocrystals'
p853
ag748
atp854
Rp855
sS'Pituitary Hormones'
p856
g2
((lp857
S'desmopressin_acetate'
p858
atp859
Rp860
sS'Cell Stim/Proliferant S/MM'
p861
g2
((lp862
S'adapalene'
p863
aS'tazarotene'
p864
ag517
atp865
Rp866
sS'Sulfonamides & Comb'
p867
g2
((lp868
S'sulfasalazine'
p869
aS'sulfamethoxazole_trimethoprim'
p870
atp871
Rp872
sS'Vitamin D'
p873
g2
((lp874
S'calcitriol'
p875
aS'ergocalciferol'
p876
atp877
Rp878
sS'Antitussives/Cold Comb'
p879
g2
((lp880
S'codeine_phos_phenyleph_hcl_promethazine_hcl'
p881
aS'cpm_dm_hydrobrom_phenyleph_hcl'
p882
aS'bpm_pse_hcl'
p883
aS'benzonatate'
p884
aS'dm_hydrobrom_gg_phenyleph_hcl'
p885
aS'hydrocod_bit_phenyleph_hcl_pyril_mal'
p886
aS'cpm_hydrocod_bit_phenyleph_hcl'
p887
aS'dm_hydrobrom_promethazine_hcl'
p888
aS'cough_cold_combination'
p889
aS'carbetapentane_tannate_chlorpheniramine_tann'
p890
aS'fexofenadine_hydrochloride'
p891
aS'cpm_dm_hydrobrom_pse_hcl'
p892
aS'dm_hydrobrom_gg_pse_hcl'
p893
aS'bpm_dm_hydrobrom_pse_hcl'
p894
aS'homatropine_methylbromide_hydrocodone_bitart'
p895
aS'guaifenesin'
p896
ag57
aS'codeine_phos_gg_pse_hcl'
p897
aS'guaifenesin_hydrocodone_bitartrate'
p898
aS'cpm_methscopolamine_nitrate_phenyleph_hcl'
p899
aS'desloratadine_pseudoephedrine_sulfate'
p900
aS'phenyleph_hcl_promethazine_hcl'
p901
aS'dextromethorphan_hydrobromide_guaifenesin'
p902
aS'levocetirizine_dihydrochloride'
p903
aS'cetirizine_hcl_pse_hcl'
p904
aS'codeine_phosphate_promethazine_hydrochloride'
p905
aS'loratadine'
p906
aS'cetirizine_hydrochloride'
p907
aS'cpm_hydrocod_bit_pse_hcl'
p908
aS'diphenhydramine_hydrochloride'
p909
aS'hydrocodone_bitartrate_potassium_guaiacolsul'
p910
aS'chlorpheniramine_polistirex_hydrocodone_poli'
p911
aS'gg_hydrocod_bit_phenyleph_hcl'
p912
aS'guaifenesin_pseudoephedrine_hydrochloride'
p913
aS'carbetapentane_tan_phenyleph_tan_pyril_tan'
p914
aS'desloratadine'
p915
aS'brompheniramine_maleate'
p916
aS'cpm_phenyleph_hcl'
p917
aS'cyproheptadine_hydrochloride'
p918
aS'promethazine_hydrochloride'
p919
atp920
Rp921
sS'Dental Agents'
p922
g2
((lp923
g627
ag909
aS'lidocaine_prilocaine'
p924
aS'lidocaine'
p925
ag430
aS'antipyrine_benzocaine'
p926
ag308
atp927
Rp928
sS'Parathyroid Hormones'
p929
g2
((lp930
S'calcitonin__salmon_'
p931
atp932
Rp933
sS'Eye/Ear/Nose/Throat Misc'
p934
g2
((lp935
S'olopatadine_hydrochloride'
p936
aS'timolol_maleate'
p937
aS'brimonidine_tartrate'
p938
aS'travoprost'
p939
aS'bimatoprost'
p940
aS'latanoprost'
p941
aS'dorzolamide_hydrochloride_timolol_maleate'
p942
aS'cromolyn_sodium'
p943
ag926
ag252
atp944
Rp945
sS'Beta blocker'
p946
g2
((lp947
S'timolol_maleate'
p948
aS'metoprolol_tartrate'
p949
aS'sotalol_hydrochloride'
p950
aS'bisoprolol_fumarate'
p951
aS'atenolol'
p952
aS'carvedilol'
p953
aS'propranolol_hydrochloride'
p954
aS'nebivolol_hydrochloride'
p955
aS'metoprolol_succinate'
p956
aS'nadolol'
p957
atp958
Rp959
sS'Analg/Antipyr, Salicylates'
p960
g2
((lp961
g65
aS'tramadol_hydrochloride'
p962
aS'aspirin_butalbital_caffeine_codeine_phosphat'
p963
aS'aspirin_butalbital_caffeine'
p964
aS'acetaminophen_butalbital'
p965
aS'acetaminophen_tramadol_hydrochloride'
p966
aS'salsalate'
p967
aS'diflunisal'
p968
aS'acetaminophen_butalbital_caffeine'
p969
atp970
Rp971
sS'Sympathomimetic Agents'
p972
g2
((lp973
S'albuterol'
p974
aS'levalbuterol_tartrate'
p975
aS'albuterol_sulfate_ipratropium_bromide'
p976
aS'albuterol_sulfate'
p977
aS'pirbuterol_acetate'
p978
aS'levalbuterol_hydrochloride'
p979
aS'epinephrine'
p980
aS'guaifenesin_phenylephrine_hydrochloride'
p981
aS'chlorpheniramine_tannate_phenylephrine_tanna'
p982
aS'cpm_pse_hcl'
p983
aS'salmeterol_xinafoate'
p984
aS'apap_dichloralphenazone_isometheptene_mucate'
p985
aS'fexofenadine_hcl_pse_hcl'
p986
atp987
Rp988
sS'Cardiac, Alpha-Beta Blockers'
p989
g2
((lp990
S'labetalol_hydrochloride'
p991
atp992
Rp993
sS'Antiallergic Agents'
p994
g2
((lp995
S'epinastine_hydrochloride'
p996
ag899
aS'azelastine_hydrochloride'
p997
atp998
Rp999
sS'Antidiabetic Agents, Insulins'
p1000
g2
((lp1001
S'insulin_human_isophane__nph__insulin_human_r'
p1002
aS'insulin_aspart_insulin_aspart_protamine'
p1003
aS'insulin_human_isophane__nph_'
p1004
aS'insulin_glargine__recombinant'
p1005
aS'insulin_lispro__recombinant'
p1006
aS'insulin_human_regular'
p1007
aS'insulin_detemir'
p1008
aS'insulin_aspart__recombinant'
p1009
atp1010
Rp1011
s.